(lp0
(iRTU_data
RTU_data
p1
(dp2
S'ip'
p3
V192.168.1.103
p4
sS'thresholds'
p5
(lp6
I19
aI24
aI31
aI36
asS'alarms_binary'
p7
I4
sS'port'
p8
I8888
sS'current_data'
p9
(iRTU_data
Dttimetemphum
p10
(dp11
S'temp'
p12
I23
sS'hour'
p13
I18
sS'hum'
p14
I26
sS'month'
p15
I4
sS'second'
p16
I32
sS'year'
p17
I20
sS'day'
p18
I8
sS'minute'
p19
I2
sbsS'prev_alarm_state'
p20
I4
sS'id'
p21
I3
sS'history'
p22
c__builtin__
set
p23
((lp24
(iRTU_data
Dttimetemphum
p25
(dp26
g12
I23
sg13
I17
sg14
I25
sg15
I4
sg16
I8
sg17
I20
sg18
I6
sg19
I11
sba(iRTU_data
Dttimetemphum
p27
(dp28
g12
I23
sg13
I15
sg14
I35
sg15
I4
sg16
I30
sg17
I20
sg18
I5
sg19
I14
sba(iRTU_data
Dttimetemphum
p29
(dp30
g12
I23
sg13
I17
sg14
I21
sg15
I4
sg16
I29
sg17
I20
sg18
I7
sg19
I38
sba(iRTU_data
Dttimetemphum
p31
(dp32
g12
I24
sg13
I15
sg14
I23
sg15
I4
sg16
I11
sg17
I20
sg18
I6
sg19
I34
sba(iRTU_data
Dttimetemphum
p33
(dp34
g12
I24
sg13
I15
sg14
I35
sg15
I4
sg16
I30
sg17
I20
sg18
I5
sg19
I34
sba(iRTU_data
Dttimetemphum
p35
(dp36
g12
I24
sg13
I18
sg14
I26
sg15
I0
sg16
I24
sg17
I0
sg18
I1
sg19
I34
sba(iRTU_data
Dttimetemphum
p37
(dp38
g12
I24
sg13
I18
sg14
I26
sg15
I0
sg16
I59
sg17
I0
sg18
I1
sg19
I34
sba(iRTU_data
Dttimetemphum
p39
(dp40
g12
I23
sg13
I17
sg14
I21
sg15
I4
sg16
I29
sg17
I20
sg18
I7
sg19
I18
sba(iRTU_data
Dttimetemphum
p41
(dp42
g12
I24
sg13
I18
sg14
I26
sg15
I0
sg16
I34
sg17
I0
sg18
I1
sg19
I31
sba(iRTU_data
Dttimetemphum
p43
(dp44
g12
I24
sg13
I15
sg14
I33
sg15
I4
sg16
I30
sg17
I20
sg18
I5
sg19
I44
sba(iRTU_data
Dttimetemphum
p45
(dp46
g12
I23
sg13
I19
sg14
I21
sg15
I4
sg16
I28
sg17
I20
sg18
I7
sg19
I8
sba(iRTU_data
Dttimetemphum
p47
(dp48
g12
I24
sg13
I21
sg14
I36
sg15
I4
sg16
I25
sg17
I20
sg18
I5
sg19
I44
sba(iRTU_data
Dttimetemphum
p49
(dp50
g12
I24
sg13
I18
sg14
I35
sg15
I4
sg16
I28
sg17
I20
sg18
I5
sg19
I4
sba(iRTU_data
Dttimetemphum
p51
(dp52
g12
I24
sg13
I18
sg14
I26
sg15
I0
sg16
I9
sg17
I0
sg18
I1
sg19
I33
sba(iRTU_data
Dttimetemphum
p53
(dp54
g12
I24
sg13
I17
sg14
I34
sg15
I4
sg16
I28
sg17
I20
sg18
I5
sg19
I44
sba(iRTU_data
Dttimetemphum
p55
(dp56
g12
I24
sg13
I21
sg14
I35
sg15
I4
sg16
I25
sg17
I20
sg18
I5
sg19
I14
sba(iRTU_data
Dttimetemphum
p57
(dp58
g12
I24
sg13
I18
sg14
I26
sg15
I0
sg16
I4
sg17
I0
sg18
I1
sg19
I33
sba(iRTU_data
Dttimetemphum
p59
(dp60
g12
I24
sg13
I18
sg14
I26
sg15
I0
sg16
I9
sg17
I0
sg18
I1
sg19
I32
sba(iRTU_data
Dttimetemphum
p61
(dp62
g12
I24
sg13
I18
sg14
I26
sg15
I0
sg16
I34
sg17
I0
sg18
I1
sg19
I32
sba(iRTU_data
Dttimetemphum
p63
(dp64
g12
I23
sg13
I19
sg14
I25
sg15
I4
sg16
I6
sg17
I20
sg18
I6
sg19
I41
sba(iRTU_data
Dttimetemphum
p65
(dp66
g12
I23
sg13
I19
sg14
I23
sg15
I4
sg16
I6
sg17
I20
sg18
I6
sg19
I31
sba(iRTU_data
Dttimetemphum
p67
(dp68
g12
I23
sg13
I16
sg14
I21
sg15
I4
sg16
I30
sg17
I20
sg18
I7
sg19
I48
sba(iRTU_data
Dttimetemphum
p69
(dp70
g12
I24
sg13
I19
sg14
I27
sg15
I0
sg16
I6
sg17
I0
sg18
I1
sg19
I38
sba(iRTU_data
Dttimetemphum
p71
(dp72
g12
I24
sg13
I18
sg14
I26
sg15
I0
sg16
I19
sg17
I0
sg18
I1
sg19
I33
sba(iRTU_data
Dttimetemphum
p73
(dp74
g12
I24
sg13
I18
sg14
I26
sg15
I0
sg16
I3
sg17
I0
sg18
I1
sg19
I30
sba(iRTU_data
Dttimetemphum
p75
(dp76
g12
I24
sg13
I18
sg14
I26
sg15
I0
sg16
I43
sg17
I0
sg18
I1
sg19
I29
sba(iRTU_data
Dttimetemphum
p77
(dp78
g12
I24
sg13
I18
sg14
I26
sg15
I0
sg16
I24
sg17
I0
sg18
I1
sg19
I33
sba(iRTU_data
Dttimetemphum
p79
(dp80
g12
I24
sg13
I20
sg14
I37
sg15
I4
sg16
I26
sg17
I20
sg18
I5
sg19
I14
sba(iRTU_data
Dttimetemphum
p81
(dp82
g12
I22
sg13
I14
sg14
I37
sg15
I4
sg16
I31
sg17
I20
sg18
I5
sg19
I34
sba(iRTU_data
Dttimetemphum
p83
(dp84
g12
I23
sg13
I17
sg14
I22
sg15
I4
sg16
I29
sg17
I20
sg18
I7
sg19
I58
sba(iRTU_data
Dttimetemphum
p85
(dp86
g12
I24
sg13
I18
sg14
I26
sg15
I0
sg16
I57
sg17
I0
sg18
I1
sg19
I45
sba(iRTU_data
Dttimetemphum
p87
(dp88
g12
I24
sg13
I18
sg14
I26
sg15
I0
sg16
I19
sg17
I0
sg18
I1
sg19
I35
sba(iRTU_data
Dttimetemphum
p89
(dp90
g12
I24
sg13
I21
sg14
I29
sg15
I4
sg16
I1
sg17
I20
sg18
I4
sg19
I53
sba(iRTU_data
Dttimetemphum
p91
(dp92
g12
I26
sg13
I19
sg14
I25
sg15
I0
sg16
I12
sg17
I0
sg18
I1
sg19
I16
sba(iRTU_data
Dttimetemphum
p93
(dp94
g12
I24
sg13
I18
sg14
I29
sg15
I0
sg16
I49
sg17
I0
sg18
I1
sg19
I33
sba(iRTU_data
Dttimetemphum
p95
(dp96
g12
I24
sg13
I18
sg14
I36
sg15
I4
sg16
I28
sg17
I20
sg18
I5
sg19
I44
sba(iRTU_data
Dttimetemphum
p97
(dp98
g12
I23
sg13
I17
sg14
I26
sg15
I4
sg16
I17
sg17
I20
sg18
I8
sg19
I52
sba(iRTU_data
Dttimetemphum
p99
(dp100
g12
I23
sg13
I20
sg14
I37
sg15
I4
sg16
I26
sg17
I20
sg18
I5
sg19
I34
sba(iRTU_data
Dttimetemphum
p101
(dp102
g12
I24
sg13
I21
sg14
I36
sg15
I4
sg16
I26
sg17
I20
sg18
I5
sg19
I4
sba(iRTU_data
Dttimetemphum
p103
(dp104
g12
I24
sg13
I18
sg14
I26
sg15
I0
sg16
I34
sg17
I0
sg18
I1
sg19
I34
sba(iRTU_data
Dttimetemphum
p105
(dp106
g12
I24
sg13
I18
sg14
I26
sg15
I0
sg16
I48
sg17
I0
sg18
I1
sg19
I29
sba(iRTU_data
Dttimetemphum
p107
(dp108
g12
I24
sg13
I18
sg14
I26
sg15
I0
sg16
I54
sg17
I0
sg18
I1
sg19
I32
sba(iRTU_data
Dttimetemphum
p109
(dp110
g12
I24
sg13
I18
sg14
I26
sg15
I0
sg16
I59
sg17
I0
sg18
I1
sg19
I32
sba(iRTU_data
Dttimetemphum
p111
(dp112
g12
I23
sg13
I17
sg14
I35
sg15
I4
sg16
I29
sg17
I20
sg18
I5
sg19
I4
sba(iRTU_data
Dttimetemphum
p113
(dp114
g12
I24
sg13
I18
sg14
I26
sg15
I0
sg16
I24
sg17
I0
sg18
I1
sg19
I35
sba(iRTU_data
Dttimetemphum
p115
(dp116
g12
I24
sg13
I18
sg14
I26
sg15
I0
sg16
I54
sg17
I0
sg18
I1
sg19
I34
sba(iRTU_data
Dttimetemphum
p117
(dp118
g12
I23
sg13
I17
sg14
I35
sg15
I4
sg16
I29
sg17
I20
sg18
I5
sg19
I14
sba(iRTU_data
Dttimetemphum
p119
(dp120
g12
I24
sg13
I15
sg14
I33
sg15
I4
sg16
I30
sg17
I20
sg18
I5
sg19
I54
sba(iRTU_data
Dttimetemphum
p121
(dp122
g12
I24
sg13
I18
sg14
I28
sg15
I0
sg16
I54
sg17
I0
sg18
I1
sg19
I33
sba(iRTU_data
Dttimetemphum
p123
(dp124
g12
I23
sg13
I19
sg14
I20
sg15
I4
sg16
I28
sg17
I20
sg18
I7
sg19
I18
sba(iRTU_data
Dttimetemphum
p125
(dp126
g12
I23
sg13
I15
sg14
I35
sg15
I4
sg16
I30
sg17
I20
sg18
I5
sg19
I24
sba(iRTU_data
Dttimetemphum
p127
(dp128
g12
I24
sg13
I18
sg14
I26
sg15
I0
sg16
I23
sg17
I0
sg18
I1
sg19
I31
sba(iRTU_data
Dttimetemphum
p129
(dp130
g12
I24
sg13
I18
sg14
I26
sg15
I0
sg16
I44
sg17
I0
sg18
I1
sg19
I32
sba(iRTU_data
Dttimetemphum
p131
(dp132
g12
I24
sg13
I18
sg14
I26
sg15
I0
sg16
I58
sg17
I0
sg18
I1
sg19
I29
sba(iRTU_data
Dttimetemphum
p133
(dp134
g12
I24
sg13
I18
sg14
I26
sg15
I0
sg16
I49
sg17
I0
sg18
I1
sg19
I35
sba(iRTU_data
Dttimetemphum
p135
(dp136
g12
I24
sg13
I18
sg14
I26
sg15
I0
sg16
I59
sg17
I0
sg18
I1
sg19
I31
sba(iRTU_data
Dttimetemphum
p137
(dp138
g12
I24
sg13
I18
sg14
I26
sg15
I0
sg16
I39
sg17
I0
sg18
I1
sg19
I32
sba(iRTU_data
Dttimetemphum
p139
(dp140
g12
I23
sg13
I16
sg14
I34
sg15
I4
sg16
I29
sg17
I20
sg18
I5
sg19
I44
sba(iRTU_data
Dttimetemphum
p141
(dp142
g12
I24
sg13
I18
sg14
I26
sg15
I0
sg16
I54
sg17
I0
sg18
I1
sg19
I31
sba(iRTU_data
Dttimetemphum
p143
(dp144
g12
I24
sg13
I18
sg14
I26
sg15
I0
sg16
I28
sg17
I0
sg18
I1
sg19
I31
sba(iRTU_data
Dttimetemphum
p145
(dp146
g12
I23
sg13
I19
sg14
I21
sg15
I4
sg16
I28
sg17
I20
sg18
I7
sg19
I28
sba(iRTU_data
Dttimetemphum
p147
(dp148
g12
I24
sg13
I23
sg14
I29
sg15
I4
sg16
I0
sg17
I20
sg18
I4
sg19
I13
sba(iRTU_data
Dttimetemphum
p149
(dp150
g12
I25
sg13
I19
sg14
I27
sg15
I0
sg16
I6
sg17
I0
sg18
I1
sg19
I28
sba(iRTU_data
Dttimetemphum
p151
(dp152
g12
I24
sg13
I22
sg14
I36
sg15
I4
sg16
I25
sg17
I20
sg18
I5
sg19
I14
sba(iRTU_data
Dttimetemphum
p153
(dp154
g12
I23
sg13
I18
sg14
I20
sg15
I4
sg16
I28
sg17
I20
sg18
I7
sg19
I48
sba(iRTU_data
Dttimetemphum
p155
(dp156
g12
I24
sg13
I18
sg14
I26
sg15
I0
sg16
I53
sg17
I0
sg18
I1
sg19
I29
sba(iRTU_data
Dttimetemphum
p157
(dp158
g12
I24
sg13
I18
sg14
I26
sg15
I0
sg16
I29
sg17
I0
sg18
I1
sg19
I35
sba(iRTU_data
Dttimetemphum
p159
(dp160
g12
I24
sg13
I19
sg14
I37
sg15
I4
sg16
I27
sg17
I20
sg18
I5
sg19
I34
sba(iRTU_data
Dttimetemphum
p161
(dp162
g12
I24
sg13
I18
sg14
I20
sg15
I4
sg16
I28
sg17
I20
sg18
I7
sg19
I28
sba(iRTU_data
Dttimetemphum
p163
(dp164
g12
I24
sg13
I18
sg14
I26
sg15
I0
sg16
I39
sg17
I0
sg18
I1
sg19
I35
sba(iRTU_data
Dttimetemphum
p165
(dp166
g12
I24
sg13
I20
sg14
I28
sg15
I4
sg16
I51
sg17
I20
sg18
I4
sg19
I49
sba(iRTU_data
Dttimetemphum
p167
(dp168
g12
I23
sg13
I17
sg14
I21
sg15
I4
sg16
I29
sg17
I20
sg18
I7
sg19
I48
sba(iRTU_data
Dttimetemphum
p169
(dp170
g12
I24
sg13
I18
sg14
I26
sg15
I0
sg16
I23
sg17
I0
sg18
I1
sg19
I30
sba(iRTU_data
Dttimetemphum
p171
(dp172
g12
I24
sg13
I18
sg14
I26
sg15
I0
sg16
I28
sg17
I0
sg18
I1
sg19
I30
sba(iRTU_data
Dttimetemphum
p173
(dp174
g12
I24
sg13
I15
sg14
I23
sg15
I4
sg16
I11
sg17
I20
sg18
I6
sg19
I44
sba(iRTU_data
Dttimetemphum
p175
(dp176
g12
I24
sg13
I21
sg14
I35
sg15
I4
sg16
I25
sg17
I20
sg18
I5
sg19
I24
sba(iRTU_data
Dttimetemphum
p177
(dp178
g12
I24
sg13
I18
sg14
I26
sg15
I0
sg16
I39
sg17
I0
sg18
I1
sg19
I34
sba(iRTU_data
Dttimetemphum
p179
(dp180
g12
I24
sg13
I18
sg14
I29
sg15
I0
sg16
I44
sg17
I0
sg18
I1
sg19
I33
sba(iRTU_data
Dttimetemphum
p181
(dp182
g12
I24
sg13
I21
sg14
I28
sg15
I4
sg16
I1
sg17
I20
sg18
I4
sg19
I23
sba(iRTU_data
Dttimetemphum
p183
(dp184
g12
I24
sg13
I22
sg14
I29
sg15
I4
sg16
I1
sg17
I20
sg18
I4
sg19
I3
sba(iRTU_data
Dttimetemphum
p185
(dp186
g12
I24
sg13
I18
sg14
I26
sg15
I0
sg16
I14
sg17
I0
sg18
I1
sg19
I34
sba(iRTU_data
Dttimetemphum
p187
(dp188
g12
I23
sg13
I16
sg14
I22
sg15
I4
sg16
I30
sg17
I20
sg18
I7
sg19
I58
sba(iRTU_data
Dttimetemphum
p189
(dp190
g12
I24
sg13
I18
sg14
I37
sg15
I4
sg16
I27
sg17
I20
sg18
I5
sg19
I54
sba(iRTU_data
Dttimetemphum
p191
(dp192
g12
I24
sg13
I18
sg14
I23
sg15
I4
sg16
I7
sg17
I20
sg18
I6
sg19
I21
sba(iRTU_data
Dttimetemphum
p193
(dp194
g12
I24
sg13
I15
sg14
I26
sg15
I4
sg16
I11
sg17
I20
sg18
I6
sg19
I4
sba(iRTU_data
Dttimetemphum
p195
(dp196
g12
I24
sg13
I18
sg14
I26
sg15
I0
sg16
I14
sg17
I0
sg18
I1
sg19
I32
sba(iRTU_data
Dttimetemphum
p197
(dp198
g12
I24
sg13
I18
sg14
I26
sg15
I0
sg16
I49
sg17
I0
sg18
I1
sg19
I31
sba(iRTU_data
Dttimetemphum
p199
(dp200
g12
I24
sg13
I18
sg14
I26
sg15
I0
sg16
I19
sg17
I0
sg18
I1
sg19
I32
sba(iRTU_data
Dttimetemphum
p201
(dp202
g12
I23
sg13
I16
sg14
I25
sg15
I4
sg16
I8
sg17
I20
sg18
I6
sg19
I31
sba(iRTU_data
Dttimetemphum
p203
(dp204
g12
I24
sg13
I18
sg14
I27
sg15
I0
sg16
I4
sg17
I0
sg18
I1
sg19
I34
sba(iRTU_data
Dttimetemphum
p205
(dp206
g12
I23
sg13
I16
sg14
I21
sg15
I4
sg16
I30
sg17
I20
sg18
I7
sg19
I28
sba(iRTU_data
Dttimetemphum
p207
(dp208
g12
I23
sg13
I16
sg14
I33
sg15
I4
sg16
I29
sg17
I20
sg18
I5
sg19
I34
sba(iRTU_data
Dttimetemphum
p209
(dp210
g12
I22
sg13
I16
sg14
I22
sg15
I4
sg16
I30
sg17
I20
sg18
I7
sg19
I8
sba(iRTU_data
Dttimetemphum
p211
(dp212
g12
I24
sg13
I15
sg14
I24
sg15
I4
sg16
I11
sg17
I20
sg18
I6
sg19
I14
sba(iRTU_data
Dttimetemphum
p213
(dp214
g12
I24
sg13
I18
sg14
I24
sg15
I4
sg16
I7
sg17
I20
sg18
I6
sg19
I1
sba(iRTU_data
Dttimetemphum
p215
(dp216
g12
I24
sg13
I18
sg14
I28
sg15
I0
sg16
I59
sg17
I0
sg18
I1
sg19
I33
sba(iRTU_data
Dttimetemphum
p217
(dp218
g12
I24
sg13
I18
sg14
I26
sg15
I0
sg16
I8
sg17
I0
sg18
I1
sg19
I30
sba(iRTU_data
Dttimetemphum
p219
(dp220
g12
I24
sg13
I19
sg14
I37
sg15
I4
sg16
I27
sg17
I20
sg18
I5
sg19
I54
sba(iRTU_data
Dttimetemphum
p221
(dp222
g12
I24
sg13
I18
sg14
I26
sg15
I0
sg16
I4
sg17
I0
sg18
I1
sg19
I32
sba(iRTU_data
Dttimetemphum
p223
(dp224
g12
I24
sg13
I18
sg14
I26
sg15
I0
sg16
I33
sg17
I0
sg18
I1
sg19
I29
sba(iRTU_data
Dttimetemphum
p225
(dp226
g12
I23
sg13
I16
sg14
I26
sg15
I4
sg16
I52
sg17
I20
sg18
I6
sg19
I11
sba(iRTU_data
Dttimetemphum
p227
(dp228
g12
I24
sg13
I22
sg14
I29
sg15
I4
sg16
I0
sg17
I20
sg18
I4
sg19
I53
sba(iRTU_data
Dttimetemphum
p229
(dp230
g12
I24
sg13
I19
sg14
I22
sg15
I4
sg16
I6
sg17
I20
sg18
I6
sg19
I11
sba(iRTU_data
Dttimetemphum
p231
(dp232
g12
I24
sg13
I19
sg14
I27
sg15
I0
sg16
I6
sg17
I0
sg18
I1
sg19
I48
sba(iRTU_data
Dttimetemphum
p233
(dp234
g12
I24
sg13
I18
sg14
I26
sg15
I0
sg16
I13
sg17
I0
sg18
I1
sg19
I31
sba(iRTU_data
Dttimetemphum
p235
(dp236
g12
I24
sg13
I18
sg14
I26
sg15
I0
sg16
I18
sg17
I0
sg18
I1
sg19
I31
sba(iRTU_data
Dttimetemphum
p237
(dp238
g12
I24
sg13
I20
sg14
I48
sg15
I4
sg16
I26
sg17
I20
sg18
I5
sg19
I4
sba(iRTU_data
Dttimetemphum
p239
(dp240
g12
I23
sg13
I15
sg14
I35
sg15
I4
sg16
I31
sg17
I20
sg18
I5
sg19
I4
sba(iRTU_data
Dttimetemphum
p241
(dp242
g12
I24
sg13
I21
sg14
I28
sg15
I4
sg16
I1
sg17
I20
sg18
I4
sg19
I3
sba(iRTU_data
Dttimetemphum
p243
(dp244
g12
I24
sg13
I18
sg14
I26
sg15
I0
sg16
I39
sg17
I0
sg18
I1
sg19
I31
sba(iRTU_data
Dttimetemphum
p245
(dp246
g12
I24
sg13
I18
sg14
I26
sg15
I0
sg16
I39
sg17
I0
sg18
I1
sg19
I33
sba(iRTU_data
Dttimetemphum
p247
(dp248
g12
I23
sg13
I17
sg14
I34
sg15
I4
sg16
I29
sg17
I20
sg18
I5
sg19
I24
sba(iRTU_data
Dttimetemphum
p249
(dp250
g12
I24
sg13
I18
sg14
I26
sg15
I0
sg16
I44
sg17
I0
sg18
I1
sg19
I34
sba(iRTU_data
Dttimetemphum
p251
(dp252
g12
I24
sg13
I18
sg14
I26
sg15
I0
sg16
I14
sg17
I0
sg18
I1
sg19
I35
sba(iRTU_data
Dttimetemphum
p253
(dp254
g12
I23
sg13
I16
sg14
I25
sg15
I4
sg16
I8
sg17
I20
sg18
I6
sg19
I51
sba(iRTU_data
Dttimetemphum
p255
(dp256
g12
I24
sg13
I23
sg14
I29
sg15
I4
sg16
I0
sg17
I20
sg18
I4
sg19
I23
sba(iRTU_data
Dttimetemphum
p257
(dp258
g12
I24
sg13
I18
sg14
I26
sg15
I0
sg16
I49
sg17
I0
sg18
I1
sg19
I34
sba(iRTU_data
Dttimetemphum
p259
(dp260
g12
I24
sg13
I18
sg14
I22
sg15
I4
sg16
I6
sg17
I20
sg18
I6
sg19
I51
sba(iRTU_data
Dttimetemphum
p261
(dp262
g12
I24
sg13
I19
sg14
I22
sg15
I4
sg16
I6
sg17
I20
sg18
I6
sg19
I1
sba(iRTU_data
Dttimetemphum
p263
(dp264
g12
I24
sg13
I18
sg14
I24
sg15
I4
sg16
I7
sg17
I20
sg18
I6
sg19
I31
sba(iRTU_data
Dttimetemphum
p265
(dp266
g12
I24
sg13
I20
sg14
I27
sg15
I0
sg16
I5
sg17
I0
sg18
I1
sg19
I8
sba(iRTU_data
Dttimetemphum
p267
(dp268
g12
I24
sg13
I21
sg14
I28
sg15
I4
sg16
I1
sg17
I20
sg18
I4
sg19
I43
sba(iRTU_data
Dttimetemphum
p269
(dp270
g12
I23
sg13
I17
sg14
I21
sg15
I4
sg16
I29
sg17
I20
sg18
I7
sg19
I28
sba(iRTU_data
Dttimetemphum
p271
(dp272
g12
I24
sg13
I18
sg14
I26
sg15
I0
sg16
I4
sg17
I0
sg18
I1
sg19
I35
sba(iRTU_data
Dttimetemphum
p273
(dp274
g12
I24
sg13
I22
sg14
I29
sg15
I4
sg16
I0
sg17
I20
sg18
I4
sg19
I23
sba(iRTU_data
Dttimetemphum
p275
(dp276
g12
I24
sg13
I18
sg14
I26
sg15
I0
sg16
I3
sg17
I0
sg18
I1
sg19
I31
sba(iRTU_data
Dttimetemphum
p277
(dp278
g12
I24
sg13
I18
sg14
I26
sg15
I0
sg16
I29
sg17
I0
sg18
I1
sg19
I34
sba(iRTU_data
Dttimetemphum
p279
(dp280
g12
I23
sg13
I19
sg14
I23
sg15
I4
sg16
I6
sg17
I20
sg18
I6
sg19
I21
sba(iRTU_data
Dttimetemphum
p281
(dp282
g12
I24
sg13
I18
sg14
I26
sg15
I0
sg16
I34
sg17
I0
sg18
I1
sg19
I35
sba(iRTU_data
Dttimetemphum
p283
(dp284
g12
I24
sg13
I19
sg14
I37
sg15
I4
sg16
I27
sg17
I20
sg18
I5
sg19
I4
sba(iRTU_data
Dttimetemphum
p285
(dp286
g12
I24
sg13
I23
sg14
I29
sg15
I4
sg16
I59
sg17
I20
sg18
I4
sg19
I32
sba(iRTU_data
Dttimetemphum
p287
(dp288
g12
I24
sg13
I18
sg14
I34
sg15
I4
sg16
I28
sg17
I20
sg18
I5
sg19
I14
sba(iRTU_data
Dttimetemphum
p289
(dp290
g12
I22
sg13
I17
sg14
I27
sg15
I4
sg16
I17
sg17
I20
sg18
I8
sg19
I32
sba(iRTU_data
Dttimetemphum
p291
(dp292
g12
I24
sg13
I18
sg14
I26
sg15
I0
sg16
I23
sg17
I0
sg18
I1
sg19
I29
sba(iRTU_data
Dttimetemphum
p293
(dp294
g12
I24
sg13
I23
sg14
I29
sg15
I4
sg16
I59
sg17
I20
sg18
I4
sg19
I52
sba(iRTU_data
Dttimetemphum
p295
(dp296
g12
I24
sg13
I22
sg14
I29
sg15
I4
sg16
I0
sg17
I20
sg18
I4
sg19
I43
sba(iRTU_data
Dttimetemphum
p297
(dp298
g12
I24
sg13
I18
sg14
I26
sg15
I0
sg16
I48
sg17
I0
sg18
I1
sg19
I30
sba(iRTU_data
Dttimetemphum
p299
(dp300
g12
I24
sg13
I18
sg14
I26
sg15
I0
sg16
I33
sg17
I0
sg18
I1
sg19
I30
sba(iRTU_data
Dttimetemphum
p301
(dp302
g12
I24
sg13
I17
sg14
I34
sg15
I4
sg16
I29
sg17
I20
sg18
I5
sg19
I34
sba(iRTU_data
Dttimetemphum
p303
(dp304
g12
I24
sg13
I16
sg14
I33
sg15
I4
sg16
I30
sg17
I20
sg18
I5
sg19
I14
sba(iRTU_data
Dttimetemphum
p305
(dp306
g12
I24
sg13
I18
sg14
I26
sg15
I0
sg16
I13
sg17
I0
sg18
I1
sg19
I29
sba(iRTU_data
Dttimetemphum
p307
(dp308
g12
I24
sg13
I18
sg14
I26
sg15
I0
sg16
I28
sg17
I0
sg18
I1
sg19
I29
sba(iRTU_data
Dttimetemphum
p309
(dp310
g12
I24
sg13
I18
sg14
I36
sg15
I4
sg16
I28
sg17
I20
sg18
I5
sg19
I34
sba(iRTU_data
Dttimetemphum
p311
(dp312
g12
I25
sg13
I18
sg14
I47
sg15
I0
sg16
I57
sg17
I0
sg18
I1
sg19
I55
sba(iRTU_data
Dttimetemphum
p313
(dp314
g12
I24
sg13
I18
sg14
I24
sg15
I4
sg16
I7
sg17
I20
sg18
I6
sg19
I11
sba(iRTU_data
Dttimetemphum
p315
(dp316
g12
I24
sg13
I18
sg14
I34
sg15
I4
sg16
I28
sg17
I20
sg18
I5
sg19
I24
sba(iRTU_data
Dttimetemphum
p317
(dp318
g12
I24
sg13
I23
sg14
I29
sg15
I4
sg16
I0
sg17
I20
sg18
I4
sg19
I3
sba(iRTU_data
Dttimetemphum
p319
(dp320
g12
I23
sg13
I16
sg14
I21
sg15
I4
sg16
I30
sg17
I20
sg18
I7
sg19
I38
sba(iRTU_data
Dttimetemphum
p321
(dp322
g12
I24
sg13
I18
sg14
I26
sg15
I0
sg16
I34
sg17
I0
sg18
I1
sg19
I33
sba(iRTU_data
Dttimetemphum
p323
(dp324
g12
I23
sg13
I18
sg14
I20
sg15
I4
sg16
I29
sg17
I20
sg18
I7
sg19
I18
sba(iRTU_data
Dttimetemphum
p325
(dp326
g12
I23
sg13
I18
sg14
I20
sg15
I4
sg16
I28
sg17
I20
sg18
I7
sg19
I38
sba(iRTU_data
Dttimetemphum
p327
(dp328
g12
I24
sg13
I18
sg14
I26
sg15
I0
sg16
I58
sg17
I0
sg18
I1
sg19
I30
sba(iRTU_data
Dttimetemphum
p329
(dp330
g12
I24
sg13
I18
sg14
I26
sg15
I0
sg16
I43
sg17
I0
sg18
I1
sg19
I30
sba(iRTU_data
Dttimetemphum
p331
(dp332
g12
I24
sg13
I16
sg14
I33
sg15
I4
sg16
I30
sg17
I20
sg18
I5
sg19
I4
sba(iRTU_data
Dttimetemphum
p333
(dp334
g12
I23
sg13
I17
sg14
I24
sg15
I4
sg16
I7
sg17
I20
sg18
I6
sg19
I41
sba(iRTU_data
Dttimetemphum
p335
(dp336
g12
I24
sg13
I19
sg14
I37
sg15
I4
sg16
I27
sg17
I20
sg18
I5
sg19
I14
sba(iRTU_data
Dttimetemphum
p337
(dp338
g12
I24
sg13
I18
sg14
I26
sg15
I0
sg16
I13
sg17
I0
sg18
I1
sg19
I30
sba(iRTU_data
Dttimetemphum
p339
(dp340
g12
I24
sg13
I19
sg14
I37
sg15
I4
sg16
I27
sg17
I20
sg18
I5
sg19
I24
sba(iRTU_data
Dttimetemphum
p341
(dp342
g12
I24
sg13
I22
sg14
I35
sg15
I4
sg16
I25
sg17
I20
sg18
I5
sg19
I4
sba(iRTU_data
Dttimetemphum
p343
(dp344
g12
I23
sg13
I20
sg14
I36
sg15
I4
sg16
I26
sg17
I20
sg18
I5
sg19
I44
sba(iRTU_data
Dttimetemphum
p345
(dp346
g12
I23
sg13
I18
sg14
I21
sg15
I4
sg16
I28
sg17
I20
sg18
I7
sg19
I58
sba(iRTU_data
Dttimetemphum
p347
(dp348
g12
I24
sg13
I18
sg14
I26
sg15
I0
sg16
I14
sg17
I0
sg18
I1
sg19
I33
sba(iRTU_data
Dttimetemphum
p349
(dp350
g12
I24
sg13
I18
sg14
I26
sg15
I0
sg16
I9
sg17
I0
sg18
I1
sg19
I35
sba(iRTU_data
Dttimetemphum
p351
(dp352
g12
I24
sg13
I18
sg14
I23
sg15
I4
sg16
I7
sg17
I20
sg18
I6
sg19
I41
sba(iRTU_data
Dttimetemphum
p353
(dp354
g12
I24
sg13
I18
sg14
I26
sg15
I0
sg16
I38
sg17
I0
sg18
I1
sg19
I29
sba(iRTU_data
Dttimetemphum
p355
(dp356
g12
I24
sg13
I21
sg14
I28
sg15
I4
sg16
I1
sg17
I20
sg18
I4
sg19
I33
sba(iRTU_data
Dttimetemphum
p357
(dp358
g12
I23
sg13
I17
sg14
I21
sg15
I4
sg16
I30
sg17
I20
sg18
I7
sg19
I8
sba(iRTU_data
Dttimetemphum
p359
(dp360
g12
I23
sg13
I17
sg14
I25
sg15
I4
sg16
I8
sg17
I20
sg18
I6
sg19
I21
sba(iRTU_data
Dttimetemphum
p361
(dp362
g12
I24
sg13
I0
sg14
I29
sg15
I4
sg16
I59
sg17
I20
sg18
I5
sg19
I2
sba(iRTU_data
Dttimetemphum
p363
(dp364
g12
I24
sg13
I18
sg14
I26
sg15
I0
sg16
I8
sg17
I0
sg18
I1
sg19
I31
sba(iRTU_data
Dttimetemphum
p365
(dp366
g12
I24
sg13
I22
sg14
I29
sg15
I4
sg16
I1
sg17
I20
sg18
I4
sg19
I13
sba(iRTU_data
Dttimetemphum
p367
(dp368
g12
I24
sg13
I18
sg14
I26
sg15
I0
sg16
I29
sg17
I0
sg18
I1
sg19
I32
sba(iRTU_data
Dttimetemphum
p369
(dp370
g12
I23
sg13
I17
sg14
I24
sg15
I4
sg16
I8
sg17
I20
sg18
I6
sg19
I31
sba(iRTU_data
Dttimetemphum
p371
(dp372
g12
I24
sg13
I20
sg14
I27
sg15
I0
sg16
I5
sg17
I0
sg18
I1
sg19
I18
sba(iRTU_data
Dttimetemphum
p373
(dp374
g12
I23
sg13
I20
sg14
I37
sg15
I4
sg16
I26
sg17
I20
sg18
I5
sg19
I24
sba(iRTU_data
Dttimetemphum
p375
(dp376
g12
I23
sg13
I16
sg14
I34
sg15
I4
sg16
I29
sg17
I20
sg18
I5
sg19
I54
sba(iRTU_data
Dttimetemphum
p377
(dp378
g12
I24
sg13
I15
sg14
I24
sg15
I4
sg16
I11
sg17
I20
sg18
I6
sg19
I24
sba(iRTU_data
Dttimetemphum
p379
(dp380
g12
I24
sg13
I18
sg14
I26
sg15
I0
sg16
I44
sg17
I0
sg18
I1
sg19
I31
sba(iRTU_data
Dttimetemphum
p381
(dp382
g12
I24
sg13
I21
sg14
I36
sg15
I4
sg16
I25
sg17
I20
sg18
I5
sg19
I54
sba(iRTU_data
Dttimetemphum
p383
(dp384
g12
I24
sg13
I18
sg14
I26
sg15
I0
sg16
I9
sg17
I0
sg18
I1
sg19
I34
sba(iRTU_data
Dttimetemphum
p385
(dp386
g12
I23
sg13
I16
sg14
I22
sg15
I4
sg16
I30
sg17
I20
sg18
I7
sg19
I18
sba(iRTU_data
Dttimetemphum
p387
(dp388
g12
I24
sg13
I21
sg14
I28
sg15
I4
sg16
I1
sg17
I20
sg18
I4
sg19
I13
sba(iRTU_data
Dttimetemphum
p389
(dp390
g12
I24
sg13
I18
sg14
I26
sg15
I0
sg16
I49
sg17
I0
sg18
I1
sg19
I32
sba(iRTU_data
Dttimetemphum
p391
(dp392
g12
I23
sg13
I17
sg14
I25
sg15
I4
sg16
I8
sg17
I20
sg18
I6
sg19
I1
sba(iRTU_data
Dttimetemphum
p393
(dp394
g12
I24
sg13
I15
sg14
I23
sg15
I4
sg16
I11
sg17
I20
sg18
I6
sg19
I54
sba(iRTU_data
Dttimetemphum
p395
(dp396
g12
I24
sg13
I18
sg14
I26
sg15
I0
sg16
I38
sg17
I0
sg18
I1
sg19
I30
sba(iRTU_data
Dttimetemphum
p397
(dp398
g12
I24
sg13
I19
sg14
I37
sg15
I4
sg16
I27
sg17
I20
sg18
I5
sg19
I44
sba(iRTU_data
Dttimetemphum
p399
(dp400
g12
I23
sg13
I17
sg14
I27
sg15
I4
sg16
I17
sg17
I20
sg18
I8
sg19
I42
sba(iRTU_data
Dttimetemphum
p401
(dp402
g12
I24
sg13
I20
sg14
I28
sg15
I0
sg16
I5
sg17
I0
sg18
I1
sg19
I28
sba(iRTU_data
Dttimetemphum
p403
(dp404
g12
I24
sg13
I17
sg14
I33
sg15
I4
sg16
I28
sg17
I20
sg18
I5
sg19
I54
sba(iRTU_data
Dttimetemphum
p405
(dp406
g12
I24
sg13
I18
sg14
I26
sg15
I0
sg16
I53
sg17
I0
sg18
I1
sg19
I30
sba(iRTU_data
Dttimetemphum
p407
(dp408
g12
I23
sg13
I17
sg14
I24
sg15
I4
sg16
I7
sg17
I20
sg18
I6
sg19
I51
sba(iRTU_data
Dttimetemphum
p409
(dp410
g12
I24
sg13
I18
sg14
I26
sg15
I0
sg16
I18
sg17
I0
sg18
I1
sg19
I29
sba(iRTU_data
Dttimetemphum
p411
(dp412
g12
I24
sg13
I18
sg14
I26
sg15
I0
sg16
I18
sg17
I0
sg18
I1
sg19
I30
sba(iRTU_data
Dttimetemphum
p413
(dp414
g12
I23
sg13
I16
sg14
I25
sg15
I4
sg16
I8
sg17
I20
sg18
I6
sg19
I41
sba(iRTU_data
Dttimetemphum
p415
(dp416
g12
I23
sg13
I14
sg14
I35
sg15
I4
sg16
I31
sg17
I20
sg18
I5
sg19
I54
sba(iRTU_data
Dttimetemphum
p417
(dp418
g12
I22
sg13
I14
sg14
I36
sg15
I4
sg16
I31
sg17
I20
sg18
I5
sg19
I44
sba(iRTU_data
Dttimetemphum
p419
(dp420
g12
I24
sg13
I19
sg14
I27
sg15
I0
sg16
I5
sg17
I0
sg18
I1
sg19
I58
sba(iRTU_data
Dttimetemphum
p421
(dp422
g12
I24
sg13
I22
sg14
I29
sg15
I4
sg16
I0
sg17
I20
sg18
I4
sg19
I33
sba(iRTU_data
Dttimetemphum
p423
(dp424
g12
I24
sg13
I18
sg14
I26
sg15
I0
sg16
I29
sg17
I0
sg18
I1
sg19
I33
sba(iRTU_data
Dttimetemphum
p425
(dp426
g12
I24
sg13
I16
sg14
I33
sg15
I4
sg16
I29
sg17
I20
sg18
I5
sg19
I24
sba(iRTU_data
Dttimetemphum
p427
(dp428
g12
I23
sg13
I20
sg14
I37
sg15
I4
sg16
I26
sg17
I20
sg18
I5
sg19
I54
sba(iRTU_data
Dttimetemphum
p429
(dp430
g12
I24
sg13
I18
sg14
I26
sg15
I0
sg16
I24
sg17
I0
sg18
I1
sg19
I32
sba(iRTU_data
Dttimetemphum
p431
(dp432
g12
I22
sg13
I15
sg14
I22
sg15
I4
sg16
I31
sg17
I20
sg18
I7
sg19
I58
sba(iRTU_data
Dttimetemphum
p433
(dp434
g12
I23
sg13
I18
sg14
I21
sg15
I4
sg16
I29
sg17
I20
sg18
I7
sg19
I8
sba(iRTU_data
Dttimetemphum
p435
(dp436
g12
I24
sg13
I23
sg14
I29
sg15
I4
sg16
I59
sg17
I20
sg18
I4
sg19
I42
sba(iRTU_data
Dttimetemphum
p437
(dp438
g12
I24
sg13
I18
sg14
I26
sg15
I0
sg16
I44
sg17
I0
sg18
I1
sg19
I35
sba(iRTU_data
Dttimetemphum
p439
(dp440
g12
I24
sg13
I18
sg14
I26
sg15
I0
sg16
I19
sg17
I0
sg18
I1
sg19
I34
sbatp441
Rp442
sba.