(lp0
(iRTU_data
RTU_data
p1
(dp2
S'ip'
p3
V192.168.1.102
p4
sS'thresholds'
p5
(lp6
I10
aI11
aI12
aI13
asS'alarms_binary'
p7
I3
sS'port'
p8
I8888
sS'current_data'
p9
(iRTU_data
Dttimetemphum
p10
(dp11
S'temp'
p12
I25
sS'hour'
p13
I22
sS'hum'
p14
I40
sS'month'
p15
I4
sS'second'
p16
I31
sS'year'
p17
I20
sS'day'
p18
I5
sS'minute'
p19
I6
sbsS'prev_alarm_state'
p20
I3
sS'id'
p21
I2
sS'history'
p22
c__builtin__
set
p23
((lp24
(iRTU_data
Dttimetemphum
p25
(dp26
g12
I26
sg13
I2
sg14
I26
sg15
I1
sg16
I37
sg17
I0
sg18
I2
sg19
I53
sba(iRTU_data
Dttimetemphum
p27
(dp28
g12
I25
sg13
I20
sg14
I36
sg15
I4
sg16
I13
sg17
I20
sg18
I5
sg19
I4
sba(iRTU_data
Dttimetemphum
p29
(dp30
g12
I26
sg13
I2
sg14
I26
sg15
I1
sg16
I52
sg17
I0
sg18
I2
sg19
I55
sba(iRTU_data
Dttimetemphum
p31
(dp32
g12
I26
sg13
I2
sg14
I26
sg15
I1
sg16
I17
sg17
I0
sg18
I2
sg19
I56
sba(iRTU_data
Dttimetemphum
p33
(dp34
g12
I26
sg13
I2
sg14
I26
sg15
I1
sg16
I31
sg17
I0
sg18
I2
sg19
I48
sba(iRTU_data
Dttimetemphum
p35
(dp36
g12
I26
sg13
I2
sg14
I28
sg15
I1
sg16
I37
sg17
I0
sg18
I2
sg19
I54
sba(iRTU_data
Dttimetemphum
p37
(dp38
g12
I26
sg13
I2
sg14
I26
sg15
I1
sg16
I31
sg17
I0
sg18
I2
sg19
I51
sba(iRTU_data
Dttimetemphum
p39
(dp40
g12
I26
sg13
I2
sg14
I26
sg15
I1
sg16
I2
sg17
I0
sg18
I2
sg19
I52
sba(iRTU_data
Dttimetemphum
p41
(dp42
g12
I26
sg13
I2
sg14
I26
sg15
I1
sg16
I41
sg17
I0
sg18
I2
sg19
I50
sba(iRTU_data
Dttimetemphum
p43
(dp44
g12
I26
sg13
I2
sg14
I26
sg15
I1
sg16
I11
sg17
I0
sg18
I2
sg19
I49
sba(iRTU_data
Dttimetemphum
p45
(dp46
g12
I26
sg13
I2
sg14
I28
sg15
I1
sg16
I27
sg17
I0
sg18
I2
sg19
I54
sba(iRTU_data
Dttimetemphum
p47
(dp48
g12
I25
sg13
I19
sg14
I40
sg15
I4
sg16
I13
sg17
I20
sg18
I5
sg19
I14
sba(iRTU_data
Dttimetemphum
p49
(dp50
g12
I26
sg13
I2
sg14
I26
sg15
I1
sg16
I7
sg17
I0
sg18
I2
sg19
I53
sba(iRTU_data
Dttimetemphum
p51
(dp52
g12
I26
sg13
I2
sg14
I28
sg15
I1
sg16
I17
sg17
I0
sg18
I2
sg19
I55
sba(iRTU_data
Dttimetemphum
p53
(dp54
g12
I26
sg13
I2
sg14
I27
sg15
I1
sg16
I27
sg17
I0
sg18
I2
sg19
I55
sba(iRTU_data
Dttimetemphum
p55
(dp56
g12
I26
sg13
I2
sg14
I26
sg15
I1
sg16
I12
sg17
I0
sg18
I2
sg19
I53
sba(iRTU_data
Dttimetemphum
p57
(dp58
g12
I26
sg13
I2
sg14
I26
sg15
I1
sg16
I56
sg17
I0
sg18
I2
sg19
I49
sba(iRTU_data
Dttimetemphum
p59
(dp60
g12
I26
sg13
I2
sg14
I26
sg15
I1
sg16
I46
sg17
I0
sg18
I2
sg19
I48
sba(iRTU_data
Dttimetemphum
p61
(dp62
g12
I26
sg13
I2
sg14
I26
sg15
I1
sg16
I57
sg17
I0
sg18
I2
sg19
I52
sba(iRTU_data
Dttimetemphum
p63
(dp64
g12
I26
sg13
I2
sg14
I26
sg15
I1
sg16
I51
sg17
I0
sg18
I2
sg19
I48
sba(iRTU_data
Dttimetemphum
p65
(dp66
g12
I26
sg13
I3
sg14
I27
sg15
I1
sg16
I28
sg17
I0
sg18
I2
sg19
I16
sba(iRTU_data
Dttimetemphum
p67
(dp68
g12
I26
sg13
I2
sg14
I27
sg15
I1
sg16
I12
sg17
I0
sg18
I2
sg19
I56
sba(iRTU_data
Dttimetemphum
p69
(dp70
g12
I26
sg13
I2
sg14
I26
sg15
I1
sg16
I42
sg17
I0
sg18
I2
sg19
I51
sba(iRTU_data
Dttimetemphum
p71
(dp72
g12
I26
sg13
I2
sg14
I26
sg15
I1
sg16
I57
sg17
I0
sg18
I2
sg19
I51
sba(iRTU_data
Dttimetemphum
p73
(dp74
g12
I26
sg13
I2
sg14
I27
sg15
I1
sg16
I17
sg17
I0
sg18
I2
sg19
I54
sba(iRTU_data
Dttimetemphum
p75
(dp76
g12
I24
sg13
I15
sg14
I35
sg15
I4
sg16
I15
sg17
I20
sg18
I5
sg19
I14
sba(iRTU_data
Dttimetemphum
p77
(dp78
g12
I25
sg13
I21
sg14
I29
sg15
I4
sg16
I35
sg17
I20
sg18
I4
sg19
I22
sba(iRTU_data
Dttimetemphum
p79
(dp80
g12
I26
sg13
I2
sg14
I26
sg15
I1
sg16
I22
sg17
I0
sg18
I2
sg19
I52
sba(iRTU_data
Dttimetemphum
p81
(dp82
g12
I26
sg13
I2
sg14
I28
sg15
I1
sg16
I32
sg17
I0
sg18
I2
sg19
I54
sba(iRTU_data
Dttimetemphum
p83
(dp84
g12
I25
sg13
I21
sg14
I37
sg15
I4
sg16
I12
sg17
I20
sg18
I5
sg19
I24
sba(iRTU_data
Dttimetemphum
p85
(dp86
g12
I25
sg13
I22
sg14
I29
sg15
I4
sg16
I35
sg17
I20
sg18
I4
sg19
I2
sba(iRTU_data
Dttimetemphum
p87
(dp88
g12
I26
sg13
I2
sg14
I27
sg15
I1
sg16
I12
sg17
I0
sg18
I2
sg19
I54
sba(iRTU_data
Dttimetemphum
p89
(dp90
g12
I25
sg13
I18
sg14
I34
sg15
I4
sg16
I13
sg17
I20
sg18
I5
sg19
I14
sba(iRTU_data
Dttimetemphum
p91
(dp92
g12
I26
sg13
I2
sg14
I26
sg15
I1
sg16
I51
sg17
I0
sg18
I2
sg19
I49
sba(iRTU_data
Dttimetemphum
p93
(dp94
g12
I26
sg13
I2
sg14
I26
sg15
I1
sg16
I36
sg17
I0
sg18
I2
sg19
I49
sba(iRTU_data
Dttimetemphum
p95
(dp96
g12
I26
sg13
I4
sg14
I28
sg15
I1
sg16
I59
sg17
I0
sg18
I2
sg19
I8
sba(iRTU_data
Dttimetemphum
p97
(dp98
g12
I25
sg13
I23
sg14
I30
sg15
I4
sg16
I34
sg17
I20
sg18
I4
sg19
I42
sba(iRTU_data
Dttimetemphum
p99
(dp100
g12
I26
sg13
I2
sg14
I26
sg15
I1
sg16
I52
sg17
I0
sg18
I2
sg19
I52
sba(iRTU_data
Dttimetemphum
p101
(dp102
g12
I26
sg13
I2
sg14
I26
sg15
I1
sg16
I1
sg17
I0
sg18
I2
sg19
I48
sba(iRTU_data
Dttimetemphum
p103
(dp104
g12
I24
sg13
I16
sg14
I34
sg15
I4
sg16
I14
sg17
I20
sg18
I5
sg19
I44
sba(iRTU_data
Dttimetemphum
p105
(dp106
g12
I25
sg13
I21
sg14
I29
sg15
I4
sg16
I35
sg17
I20
sg18
I4
sg19
I32
sba(iRTU_data
Dttimetemphum
p107
(dp108
g12
I26
sg13
I2
sg14
I26
sg15
I1
sg16
I57
sg17
I0
sg18
I2
sg19
I55
sba(iRTU_data
Dttimetemphum
p109
(dp110
g12
I25
sg13
I20
sg14
I30
sg15
I4
sg16
I22
sg17
I20
sg18
I4
sg19
I49
sba(iRTU_data
Dttimetemphum
p111
(dp112
g12
I25
sg13
I17
sg14
I34
sg15
I4
sg16
I14
sg17
I20
sg18
I5
sg19
I24
sba(iRTU_data
Dttimetemphum
p113
(dp114
g12
I25
sg13
I16
sg14
I33
sg15
I4
sg16
I14
sg17
I20
sg18
I5
sg19
I34
sba(iRTU_data
Dttimetemphum
p115
(dp116
g12
I26
sg13
I2
sg14
I26
sg15
I1
sg16
I41
sg17
I0
sg18
I2
sg19
I47
sba(iRTU_data
Dttimetemphum
p117
(dp118
g12
I26
sg13
I2
sg14
I26
sg15
I1
sg16
I2
sg17
I0
sg18
I2
sg19
I53
sba(iRTU_data
Dttimetemphum
p119
(dp120
g12
I26
sg13
I2
sg14
I26
sg15
I1
sg16
I56
sg17
I0
sg18
I2
sg19
I50
sba(iRTU_data
Dttimetemphum
p121
(dp122
g12
I24
sg13
I16
sg14
I34
sg15
I4
sg16
I14
sg17
I20
sg18
I5
sg19
I54
sba(iRTU_data
Dttimetemphum
p123
(dp124
g12
I26
sg13
I2
sg14
I27
sg15
I1
sg16
I1
sg17
I0
sg18
I2
sg19
I49
sba(iRTU_data
Dttimetemphum
p125
(dp126
g12
I26
sg13
I2
sg14
I26
sg15
I1
sg16
I1
sg17
I0
sg18
I2
sg19
I51
sba(iRTU_data
Dttimetemphum
p127
(dp128
g12
I26
sg13
I2
sg14
I27
sg15
I1
sg16
I52
sg17
I0
sg18
I2
sg19
I53
sba(iRTU_data
Dttimetemphum
p129
(dp130
g12
I25
sg13
I4
sg14
I28
sg15
I1
sg16
I59
sg17
I0
sg18
I2
sg19
I38
sba(iRTU_data
Dttimetemphum
p131
(dp132
g12
I26
sg13
I2
sg14
I26
sg15
I1
sg16
I17
sg17
I0
sg18
I2
sg19
I52
sba(iRTU_data
Dttimetemphum
p133
(dp134
g12
I26
sg13
I2
sg14
I26
sg15
I1
sg16
I11
sg17
I0
sg18
I2
sg19
I48
sba(iRTU_data
Dttimetemphum
p135
(dp136
g12
I25
sg13
I16
sg14
I37
sg15
I4
sg16
I14
sg17
I20
sg18
I5
sg19
I14
sba(iRTU_data
Dttimetemphum
p137
(dp138
g12
I26
sg13
I2
sg14
I26
sg15
I1
sg16
I16
sg17
I0
sg18
I2
sg19
I51
sba(iRTU_data
Dttimetemphum
p139
(dp140
g12
I26
sg13
I2
sg14
I26
sg15
I1
sg16
I27
sg17
I0
sg18
I2
sg19
I53
sba(iRTU_data
Dttimetemphum
p141
(dp142
g12
I25
sg13
I16
sg14
I33
sg15
I4
sg16
I14
sg17
I20
sg18
I5
sg19
I24
sba(iRTU_data
Dttimetemphum
p143
(dp144
g12
I25
sg13
I18
sg14
I39
sg15
I4
sg16
I13
sg17
I20
sg18
I5
sg19
I54
sba(iRTU_data
Dttimetemphum
p145
(dp146
g12
I26
sg13
I2
sg14
I26
sg15
I1
sg16
I36
sg17
I0
sg18
I2
sg19
I48
sba(iRTU_data
Dttimetemphum
p147
(dp148
g12
I26
sg13
I2
sg14
I26
sg15
I1
sg16
I41
sg17
I0
sg18
I2
sg19
I49
sba(iRTU_data
Dttimetemphum
p149
(dp150
g12
I26
sg13
I2
sg14
I26
sg15
I1
sg16
I47
sg17
I0
sg18
I2
sg19
I53
sba(iRTU_data
Dttimetemphum
p151
(dp152
g12
I25
sg13
I20
sg14
I39
sg15
I4
sg16
I12
sg17
I20
sg18
I5
sg19
I54
sba(iRTU_data
Dttimetemphum
p153
(dp154
g12
I26
sg13
I2
sg14
I26
sg15
I1
sg16
I1
sg17
I0
sg18
I2
sg19
I50
sba(iRTU_data
Dttimetemphum
p155
(dp156
g12
I26
sg13
I21
sg14
I35
sg15
I4
sg16
I12
sg17
I20
sg18
I5
sg19
I54
sba(iRTU_data
Dttimetemphum
p157
(dp158
g12
I25
sg13
I21
sg14
I28
sg15
I4
sg16
I35
sg17
I20
sg18
I4
sg19
I42
sba(iRTU_data
Dttimetemphum
p159
(dp160
g12
I26
sg13
I2
sg14
I26
sg15
I1
sg16
I12
sg17
I0
sg18
I2
sg19
I52
sba(iRTU_data
Dttimetemphum
p161
(dp162
g12
I25
sg13
I22
sg14
I29
sg15
I4
sg16
I34
sg17
I20
sg18
I4
sg19
I32
sba(iRTU_data
Dttimetemphum
p163
(dp164
g12
I26
sg13
I2
sg14
I26
sg15
I1
sg16
I27
sg17
I0
sg18
I2
sg19
I52
sba(iRTU_data
Dttimetemphum
p165
(dp166
g12
I25
sg13
I20
sg14
I35
sg15
I4
sg16
I12
sg17
I20
sg18
I5
sg19
I34
sba(iRTU_data
Dttimetemphum
p167
(dp168
g12
I26
sg13
I2
sg14
I26
sg15
I1
sg16
I36
sg17
I0
sg18
I2
sg19
I50
sba(iRTU_data
Dttimetemphum
p169
(dp170
g12
I25
sg13
I17
sg14
I34
sg15
I4
sg16
I14
sg17
I20
sg18
I5
sg19
I34
sba(iRTU_data
Dttimetemphum
p171
(dp172
g12
I26
sg13
I2
sg14
I26
sg15
I1
sg16
I36
sg17
I0
sg18
I2
sg19
I47
sba(iRTU_data
Dttimetemphum
p173
(dp174
g12
I26
sg13
I2
sg14
I26
sg15
I1
sg16
I51
sg17
I0
sg18
I2
sg19
I47
sba(iRTU_data
Dttimetemphum
p175
(dp176
g12
I24
sg13
I17
sg14
I36
sg15
I4
sg16
I14
sg17
I20
sg18
I5
sg19
I4
sba(iRTU_data
Dttimetemphum
p177
(dp178
g12
I25
sg13
I15
sg14
I36
sg15
I4
sg16
I15
sg17
I20
sg18
I5
sg19
I24
sba(iRTU_data
Dttimetemphum
p179
(dp180
g12
I26
sg13
I2
sg14
I28
sg15
I1
sg16
I12
sg17
I0
sg18
I2
sg19
I55
sba(iRTU_data
Dttimetemphum
p181
(dp182
g12
I25
sg13
I22
sg14
I28
sg15
I4
sg16
I34
sg17
I20
sg18
I4
sg19
I12
sba(iRTU_data
Dttimetemphum
p183
(dp184
g12
I26
sg13
I2
sg14
I26
sg15
I1
sg16
I42
sg17
I0
sg18
I2
sg19
I52
sba(iRTU_data
Dttimetemphum
p185
(dp186
g12
I26
sg13
I2
sg14
I26
sg15
I1
sg16
I31
sg17
I0
sg18
I2
sg19
I50
sba(iRTU_data
Dttimetemphum
p187
(dp188
g12
I26
sg13
I2
sg14
I26
sg15
I1
sg16
I2
sg17
I0
sg18
I2
sg19
I54
sba(iRTU_data
Dttimetemphum
p189
(dp190
g12
I26
sg13
I2
sg14
I26
sg15
I1
sg16
I52
sg17
I0
sg18
I2
sg19
I51
sba(iRTU_data
Dttimetemphum
p191
(dp192
g12
I26
sg13
I2
sg14
I26
sg15
I1
sg16
I26
sg17
I0
sg18
I2
sg19
I48
sba(iRTU_data
Dttimetemphum
p193
(dp194
g12
I25
sg13
I16
sg14
I33
sg15
I4
sg16
I14
sg17
I20
sg18
I5
sg19
I4
sba(iRTU_data
Dttimetemphum
p195
(dp196
g12
I26
sg13
I2
sg14
I28
sg15
I1
sg16
I7
sg17
I0
sg18
I2
sg19
I54
sba(iRTU_data
Dttimetemphum
p197
(dp198
g12
I26
sg13
I2
sg14
I27
sg15
I1
sg16
I47
sg17
I0
sg18
I2
sg19
I54
sba(iRTU_data
Dttimetemphum
p199
(dp200
g12
I26
sg13
I2
sg14
I28
sg15
I1
sg16
I2
sg17
I0
sg18
I2
sg19
I55
sba(iRTU_data
Dttimetemphum
p201
(dp202
g12
I26
sg13
I2
sg14
I26
sg15
I1
sg16
I16
sg17
I0
sg18
I2
sg19
I49
sba(iRTU_data
Dttimetemphum
p203
(dp204
g12
I25
sg13
I18
sg14
I36
sg15
I4
sg16
I13
sg17
I20
sg18
I5
sg19
I34
sba(iRTU_data
Dttimetemphum
p205
(dp206
g12
I26
sg13
I2
sg14
I26
sg15
I1
sg16
I22
sg17
I0
sg18
I2
sg19
I53
sba(iRTU_data
Dttimetemphum
p207
(dp208
g12
I26
sg13
I2
sg14
I26
sg15
I1
sg16
I11
sg17
I0
sg18
I2
sg19
I51
sba(iRTU_data
Dttimetemphum
p209
(dp210
g12
I23
sg13
I14
sg14
I38
sg15
I4
sg16
I15
sg17
I20
sg18
I5
sg19
I44
sba(iRTU_data
Dttimetemphum
p211
(dp212
g12
I25
sg13
I22
sg14
I30
sg15
I4
sg16
I34
sg17
I20
sg18
I4
sg19
I52
sba(iRTU_data
Dttimetemphum
p213
(dp214
g12
I26
sg13
I2
sg14
I26
sg15
I1
sg16
I6
sg17
I0
sg18
I2
sg19
I51
sba(iRTU_data
Dttimetemphum
p215
(dp216
g12
I26
sg13
I2
sg14
I26
sg15
I1
sg16
I46
sg17
I0
sg18
I2
sg19
I49
sba(iRTU_data
Dttimetemphum
p217
(dp218
g12
I25
sg13
I23
sg14
I30
sg15
I4
sg16
I34
sg17
I20
sg18
I4
sg19
I32
sba(iRTU_data
Dttimetemphum
p219
(dp220
g12
I26
sg13
I2
sg14
I26
sg15
I1
sg16
I32
sg17
I0
sg18
I2
sg19
I53
sba(iRTU_data
Dttimetemphum
p221
(dp222
g12
I25
sg13
I19
sg14
I36
sg15
I4
sg16
I13
sg17
I20
sg18
I5
sg19
I34
sba(iRTU_data
Dttimetemphum
p223
(dp224
g12
I26
sg13
I2
sg14
I26
sg15
I1
sg16
I47
sg17
I0
sg18
I2
sg19
I51
sba(iRTU_data
Dttimetemphum
p225
(dp226
g12
I26
sg13
I4
sg14
I28
sg15
I1
sg16
I59
sg17
I0
sg18
I2
sg19
I18
sba(iRTU_data
Dttimetemphum
p227
(dp228
g12
I26
sg13
I2
sg14
I26
sg15
I1
sg16
I26
sg17
I0
sg18
I2
sg19
I51
sba(iRTU_data
Dttimetemphum
p229
(dp230
g12
I26
sg13
I2
sg14
I26
sg15
I1
sg16
I37
sg17
I0
sg18
I2
sg19
I55
sba(iRTU_data
Dttimetemphum
p231
(dp232
g12
I25
sg13
I23
sg14
I31
sg15
I4
sg16
I34
sg17
I20
sg18
I4
sg19
I2
sba(iRTU_data
Dttimetemphum
p233
(dp234
g12
I26
sg13
I2
sg14
I26
sg15
I1
sg16
I36
sg17
I0
sg18
I2
sg19
I51
sba(iRTU_data
Dttimetemphum
p235
(dp236
g12
I25
sg13
I21
sg14
I28
sg15
I4
sg16
I35
sg17
I20
sg18
I4
sg19
I2
sba(iRTU_data
Dttimetemphum
p237
(dp238
g12
I26
sg13
I2
sg14
I27
sg15
I1
sg16
I57
sg17
I0
sg18
I2
sg19
I54
sba(iRTU_data
Dttimetemphum
p239
(dp240
g12
I26
sg13
I2
sg14
I26
sg15
I1
sg16
I21
sg17
I0
sg18
I2
sg19
I49
sba(iRTU_data
Dttimetemphum
p241
(dp242
g12
I26
sg13
I3
sg14
I29
sg15
I1
sg16
I59
sg17
I0
sg18
I2
sg19
I48
sba(iRTU_data
Dttimetemphum
p243
(dp244
g12
I26
sg13
I23
sg14
I29
sg15
I4
sg16
I34
sg17
I20
sg18
I4
sg19
I12
sba(iRTU_data
Dttimetemphum
p245
(dp246
g12
I25
sg13
I21
sg14
I28
sg15
I4
sg16
I35
sg17
I20
sg18
I4
sg19
I52
sba(iRTU_data
Dttimetemphum
p247
(dp248
g12
I25
sg13
I20
sg14
I36
sg15
I4
sg16
I13
sg17
I20
sg18
I5
sg19
I14
sba(iRTU_data
Dttimetemphum
p249
(dp250
g12
I26
sg13
I2
sg14
I26
sg15
I1
sg16
I37
sg17
I0
sg18
I2
sg19
I52
sba(iRTU_data
Dttimetemphum
p251
(dp252
g12
I24
sg13
I15
sg14
I36
sg15
I4
sg16
I15
sg17
I20
sg18
I5
sg19
I4
sba(iRTU_data
Dttimetemphum
p253
(dp254
g12
I26
sg13
I2
sg14
I26
sg15
I1
sg16
I2
sg17
I0
sg18
I2
sg19
I56
sba(iRTU_data
Dttimetemphum
p255
(dp256
g12
I25
sg13
I22
sg14
I33
sg15
I4
sg16
I34
sg17
I20
sg18
I4
sg19
I42
sba(iRTU_data
Dttimetemphum
p257
(dp258
g12
I25
sg13
I15
sg14
I33
sg15
I4
sg16
I15
sg17
I20
sg18
I5
sg19
I44
sba(iRTU_data
Dttimetemphum
p259
(dp260
g12
I26
sg13
I2
sg14
I27
sg15
I1
sg16
I21
sg17
I0
sg18
I2
sg19
I48
sba(iRTU_data
Dttimetemphum
p261
(dp262
g12
I25
sg13
I17
sg14
I33
sg15
I4
sg16
I14
sg17
I20
sg18
I5
sg19
I44
sba(iRTU_data
Dttimetemphum
p263
(dp264
g12
I25
sg13
I18
sg14
I33
sg15
I4
sg16
I14
sg17
I20
sg18
I5
sg19
I4
sba(iRTU_data
Dttimetemphum
p265
(dp266
g12
I26
sg13
I21
sg14
I35
sg15
I4
sg16
I12
sg17
I20
sg18
I5
sg19
I14
sba(iRTU_data
Dttimetemphum
p267
(dp268
g12
I26
sg13
I2
sg14
I26
sg15
I1
sg16
I21
sg17
I0
sg18
I2
sg19
I50
sba(iRTU_data
Dttimetemphum
p269
(dp270
g12
I26
sg13
I2
sg14
I26
sg15
I1
sg16
I6
sg17
I0
sg18
I2
sg19
I48
sba(iRTU_data
Dttimetemphum
p271
(dp272
g12
I26
sg13
I2
sg14
I27
sg15
I1
sg16
I32
sg17
I0
sg18
I2
sg19
I55
sba(iRTU_data
Dttimetemphum
p273
(dp274
g12
I26
sg13
I2
sg14
I26
sg15
I1
sg16
I6
sg17
I0
sg18
I2
sg19
I50
sba(iRTU_data
Dttimetemphum
p275
(dp276
g12
I25
sg13
I4
sg14
I29
sg15
I1
sg16
I58
sg17
I0
sg18
I2
sg19
I48
sba(iRTU_data
Dttimetemphum
p277
(dp278
g12
I25
sg13
I21
sg14
I35
sg15
I4
sg16
I12
sg17
I20
sg18
I5
sg19
I44
sba(iRTU_data
Dttimetemphum
p279
(dp280
g12
I26
sg13
I2
sg14
I26
sg15
I1
sg16
I47
sg17
I0
sg18
I2
sg19
I55
sba(iRTU_data
Dttimetemphum
p281
(dp282
g12
I25
sg13
I20
sg14
I35
sg15
I4
sg16
I13
sg17
I20
sg18
I5
sg19
I24
sba(iRTU_data
Dttimetemphum
p283
(dp284
g12
I25
sg13
I17
sg14
I33
sg15
I4
sg16
I14
sg17
I20
sg18
I5
sg19
I54
sba(iRTU_data
Dttimetemphum
p285
(dp286
g12
I26
sg13
I3
sg14
I31
sg15
I1
sg16
I59
sg17
I0
sg18
I2
sg19
I58
sba(iRTU_data
Dttimetemphum
p287
(dp288
g12
I26
sg13
I2
sg14
I27
sg15
I1
sg16
I42
sg17
I0
sg18
I2
sg19
I54
sba(iRTU_data
Dttimetemphum
p289
(dp290
g12
I25
sg13
I19
sg14
I37
sg15
I4
sg16
I13
sg17
I20
sg18
I5
sg19
I44
sba(iRTU_data
Dttimetemphum
p291
(dp292
g12
I25
sg13
I15
sg14
I33
sg15
I4
sg16
I14
sg17
I20
sg18
I5
sg19
I54
sba(iRTU_data
Dttimetemphum
p293
(dp294
g12
I26
sg13
I2
sg14
I26
sg15
I1
sg16
I32
sg17
I0
sg18
I2
sg19
I52
sba(iRTU_data
Dttimetemphum
p295
(dp296
g12
I26
sg13
I2
sg14
I27
sg15
I1
sg16
I56
sg17
I0
sg18
I2
sg19
I48
sba(iRTU_data
Dttimetemphum
p297
(dp298
g12
I26
sg13
I2
sg14
I26
sg15
I1
sg16
I47
sg17
I0
sg18
I2
sg19
I52
sba(iRTU_data
Dttimetemphum
p299
(dp300
g12
I26
sg13
I2
sg14
I26
sg15
I1
sg16
I11
sg17
I0
sg18
I2
sg19
I50
sba(iRTU_data
Dttimetemphum
p301
(dp302
g12
I25
sg13
I18
sg14
I34
sg15
I4
sg16
I13
sg17
I20
sg18
I5
sg19
I24
sba(iRTU_data
Dttimetemphum
p303
(dp304
g12
I26
sg13
I2
sg14
I26
sg15
I1
sg16
I16
sg17
I0
sg18
I2
sg19
I48
sba(iRTU_data
Dttimetemphum
p305
(dp306
g12
I26
sg13
I2
sg14
I26
sg15
I1
sg16
I46
sg17
I0
sg18
I2
sg19
I47
sba(iRTU_data
Dttimetemphum
p307
(dp308
g12
I26
sg13
I2
sg14
I28
sg15
I1
sg16
I52
sg17
I0
sg18
I2
sg19
I54
sba(iRTU_data
Dttimetemphum
p309
(dp310
g12
I26
sg13
I2
sg14
I26
sg15
I1
sg16
I21
sg17
I0
sg18
I2
sg19
I51
sba(iRTU_data
Dttimetemphum
p311
(dp312
g12
I26
sg13
I2
sg14
I26
sg15
I1
sg16
I46
sg17
I0
sg18
I2
sg19
I50
sba(iRTU_data
Dttimetemphum
p313
(dp314
g12
I26
sg13
I2
sg14
I29
sg15
I1
sg16
I7
sg17
I0
sg18
I2
sg19
I55
sba(iRTU_data
Dttimetemphum
p315
(dp316
g12
I25
sg13
I22
sg14
I29
sg15
I4
sg16
I34
sg17
I20
sg18
I4
sg19
I22
sba(iRTU_data
Dttimetemphum
p317
(dp318
g12
I26
sg13
I2
sg14
I26
sg15
I1
sg16
I51
sg17
I0
sg18
I2
sg19
I50
sba(iRTU_data
Dttimetemphum
p319
(dp320
g12
I25
sg13
I23
sg14
I29
sg15
I4
sg16
I34
sg17
I20
sg18
I4
sg19
I22
sba(iRTU_data
Dttimetemphum
p321
(dp322
g12
I26
sg13
I2
sg14
I26
sg15
I1
sg16
I7
sg17
I0
sg18
I2
sg19
I56
sba(iRTU_data
Dttimetemphum
p323
(dp324
g12
I25
sg13
I4
sg14
I28
sg15
I1
sg16
I59
sg17
I0
sg18
I2
sg19
I28
sba(iRTU_data
Dttimetemphum
p325
(dp326
g12
I26
sg13
I2
sg14
I26
sg15
I1
sg16
I16
sg17
I0
sg18
I2
sg19
I50
sba(iRTU_data
Dttimetemphum
p327
(dp328
g12
I26
sg13
I2
sg14
I27
sg15
I1
sg16
I57
sg17
I0
sg18
I2
sg19
I53
sba(iRTU_data
Dttimetemphum
p329
(dp330
g12
I26
sg13
I2
sg14
I28
sg15
I1
sg16
I22
sg17
I0
sg18
I2
sg19
I55
sba(iRTU_data
Dttimetemphum
p331
(dp332
g12
I23
sg13
I14
sg14
I39
sg15
I4
sg16
I15
sg17
I20
sg18
I5
sg19
I34
sba(iRTU_data
Dttimetemphum
p333
(dp334
g12
I25
sg13
I19
sg14
I37
sg15
I4
sg16
I13
sg17
I20
sg18
I5
sg19
I4
sba(iRTU_data
Dttimetemphum
p335
(dp336
g12
I25
sg13
I0
sg14
I29
sg15
I4
sg16
I34
sg17
I20
sg18
I5
sg19
I2
sba(iRTU_data
Dttimetemphum
p337
(dp338
g12
I26
sg13
I22
sg14
I37
sg15
I4
sg16
I12
sg17
I20
sg18
I5
sg19
I4
sba(iRTU_data
Dttimetemphum
p339
(dp340
g12
I26
sg13
I2
sg14
I27
sg15
I1
sg16
I22
sg17
I0
sg18
I2
sg19
I54
sba(iRTU_data
Dttimetemphum
p341
(dp342
g12
I26
sg13
I2
sg14
I26
sg15
I1
sg16
I6
sg17
I0
sg18
I2
sg19
I49
sba(iRTU_data
Dttimetemphum
p343
(dp344
g12
I26
sg13
I2
sg14
I26
sg15
I1
sg16
I26
sg17
I0
sg18
I2
sg19
I49
sba(iRTU_data
Dttimetemphum
p345
(dp346
g12
I26
sg13
I3
sg14
I26
sg15
I1
sg16
I28
sg17
I0
sg18
I2
sg19
I6
sba(iRTU_data
Dttimetemphum
p347
(dp348
g12
I25
sg13
I17
sg14
I35
sg15
I4
sg16
I14
sg17
I20
sg18
I5
sg19
I14
sba(iRTU_data
Dttimetemphum
p349
(dp350
g12
I24
sg13
I14
sg14
I38
sg15
I4
sg16
I15
sg17
I20
sg18
I5
sg19
I54
sba(iRTU_data
Dttimetemphum
p351
(dp352
g12
I25
sg13
I21
sg14
I28
sg15
I4
sg16
I35
sg17
I20
sg18
I4
sg19
I12
sba(iRTU_data
Dttimetemphum
p353
(dp354
g12
I25
sg13
I19
sg14
I39
sg15
I4
sg16
I13
sg17
I20
sg18
I5
sg19
I54
sba(iRTU_data
Dttimetemphum
p355
(dp356
g12
I26
sg13
I2
sg14
I26
sg15
I1
sg16
I42
sg17
I0
sg18
I2
sg19
I53
sba(iRTU_data
Dttimetemphum
p357
(dp358
g12
I25
sg13
I20
sg14
I35
sg15
I4
sg16
I12
sg17
I20
sg18
I5
sg19
I44
sba(iRTU_data
Dttimetemphum
p359
(dp360
g12
I26
sg13
I2
sg14
I26
sg15
I1
sg16
I26
sg17
I0
sg18
I2
sg19
I50
sba(iRTU_data
Dttimetemphum
p361
(dp362
g12
I25
sg13
I18
sg14
I37
sg15
I4
sg16
I13
sg17
I20
sg18
I5
sg19
I44
sba(iRTU_data
Dttimetemphum
p363
(dp364
g12
I25
sg13
I19
sg14
I37
sg15
I4
sg16
I13
sg17
I20
sg18
I5
sg19
I24
sba(iRTU_data
Dttimetemphum
p365
(dp366
g12
I25
sg13
I21
sg14
I39
sg15
I4
sg16
I12
sg17
I20
sg18
I5
sg19
I4
sba(iRTU_data
Dttimetemphum
p367
(dp368
g12
I26
sg13
I3
sg14
I28
sg15
I1
sg16
I2
sg17
I0
sg18
I2
sg19
I32
sba(iRTU_data
Dttimetemphum
p369
(dp370
g12
I26
sg13
I2
sg14
I26
sg15
I1
sg16
I7
sg17
I0
sg18
I2
sg19
I52
sba(iRTU_data
Dttimetemphum
p371
(dp372
g12
I25
sg13
I21
sg14
I37
sg15
I4
sg16
I12
sg17
I20
sg18
I5
sg19
I34
sba(iRTU_data
Dttimetemphum
p373
(dp374
g12
I26
sg13
I2
sg14
I26
sg15
I1
sg16
I42
sg17
I0
sg18
I2
sg19
I55
sba(iRTU_data
Dttimetemphum
p375
(dp376
g12
I25
sg13
I15
sg14
I39
sg15
I4
sg16
I15
sg17
I20
sg18
I5
sg19
I34
sba(iRTU_data
Dttimetemphum
p377
(dp378
g12
I26
sg13
I2
sg14
I26
sg15
I1
sg16
I31
sg17
I0
sg18
I2
sg19
I49
sba(iRTU_data
Dttimetemphum
p379
(dp380
g12
I26
sg13
I2
sg14
I26
sg15
I1
sg16
I56
sg17
I0
sg18
I2
sg19
I47
sba(iRTU_data
Dttimetemphum
p381
(dp382
g12
I26
sg13
I2
sg14
I26
sg15
I1
sg16
I17
sg17
I0
sg18
I2
sg19
I53
sba(iRTU_data
Dttimetemphum
p383
(dp384
g12
I25
sg13
I23
sg14
I29
sg15
I4
sg16
I34
sg17
I20
sg18
I4
sg19
I52
sba(iRTU_data
Dttimetemphum
p385
(dp386
g12
I26
sg13
I2
sg14
I26
sg15
I1
sg16
I41
sg17
I0
sg18
I2
sg19
I48
sbatp387
Rp388
sba(iRTU_data
RTU_data
p389
(dp390
g3
V192.168.1.103
p391
sg5
(lp392
I19
aI20
aI31
aI32
asg7
I0
sg8
I8888
sg9
(iRTU_data
Dttimetemphum
p393
(dp394
g12
I24
sg13
I22
sg14
I35
sg15
I4
sg16
I47
sg17
I20
sg18
I5
sg19
I6
sbsg20
I0
sg21
I3
sg22
g23
((lp395
(iRTU_data
Dttimetemphum
p396
(dp397
g12
I23
sg13
I15
sg14
I35
sg15
I4
sg16
I30
sg17
I20
sg18
I5
sg19
I14
sba(iRTU_data
Dttimetemphum
p398
(dp399
g12
I24
sg13
I23
sg14
I29
sg15
I4
sg16
I0
sg17
I20
sg18
I4
sg19
I3
sba(iRTU_data
Dttimetemphum
p400
(dp401
g12
I24
sg13
I15
sg14
I35
sg15
I4
sg16
I30
sg17
I20
sg18
I5
sg19
I34
sba(iRTU_data
Dttimetemphum
p402
(dp403
g12
I24
sg13
I18
sg14
I26
sg15
I0
sg16
I24
sg17
I0
sg18
I1
sg19
I34
sba(iRTU_data
Dttimetemphum
p404
(dp405
g12
I24
sg13
I18
sg14
I26
sg15
I0
sg16
I59
sg17
I0
sg18
I1
sg19
I34
sba(iRTU_data
Dttimetemphum
p406
(dp407
g12
I24
sg13
I18
sg14
I26
sg15
I0
sg16
I34
sg17
I0
sg18
I1
sg19
I31
sba(iRTU_data
Dttimetemphum
p408
(dp409
g12
I24
sg13
I15
sg14
I33
sg15
I4
sg16
I30
sg17
I20
sg18
I5
sg19
I44
sba(iRTU_data
Dttimetemphum
p410
(dp411
g12
I24
sg13
I21
sg14
I36
sg15
I4
sg16
I25
sg17
I20
sg18
I5
sg19
I44
sba(iRTU_data
Dttimetemphum
p412
(dp413
g12
I24
sg13
I18
sg14
I35
sg15
I4
sg16
I28
sg17
I20
sg18
I5
sg19
I4
sba(iRTU_data
Dttimetemphum
p414
(dp415
g12
I24
sg13
I18
sg14
I26
sg15
I0
sg16
I9
sg17
I0
sg18
I1
sg19
I33
sba(iRTU_data
Dttimetemphum
p416
(dp417
g12
I24
sg13
I17
sg14
I34
sg15
I4
sg16
I28
sg17
I20
sg18
I5
sg19
I44
sba(iRTU_data
Dttimetemphum
p418
(dp419
g12
I24
sg13
I21
sg14
I35
sg15
I4
sg16
I25
sg17
I20
sg18
I5
sg19
I14
sba(iRTU_data
Dttimetemphum
p420
(dp421
g12
I24
sg13
I18
sg14
I26
sg15
I0
sg16
I4
sg17
I0
sg18
I1
sg19
I33
sba(iRTU_data
Dttimetemphum
p422
(dp423
g12
I24
sg13
I18
sg14
I26
sg15
I0
sg16
I9
sg17
I0
sg18
I1
sg19
I32
sba(iRTU_data
Dttimetemphum
p424
(dp425
g12
I24
sg13
I18
sg14
I26
sg15
I0
sg16
I34
sg17
I0
sg18
I1
sg19
I32
sba(iRTU_data
Dttimetemphum
p426
(dp427
g12
I24
sg13
I19
sg14
I27
sg15
I0
sg16
I6
sg17
I0
sg18
I1
sg19
I38
sba(iRTU_data
Dttimetemphum
p428
(dp429
g12
I24
sg13
I18
sg14
I26
sg15
I0
sg16
I19
sg17
I0
sg18
I1
sg19
I33
sba(iRTU_data
Dttimetemphum
p430
(dp431
g12
I24
sg13
I18
sg14
I26
sg15
I0
sg16
I3
sg17
I0
sg18
I1
sg19
I30
sba(iRTU_data
Dttimetemphum
p432
(dp433
g12
I24
sg13
I18
sg14
I26
sg15
I0
sg16
I43
sg17
I0
sg18
I1
sg19
I29
sba(iRTU_data
Dttimetemphum
p434
(dp435
g12
I24
sg13
I18
sg14
I26
sg15
I0
sg16
I24
sg17
I0
sg18
I1
sg19
I33
sba(iRTU_data
Dttimetemphum
p436
(dp437
g12
I24
sg13
I20
sg14
I37
sg15
I4
sg16
I26
sg17
I20
sg18
I5
sg19
I14
sba(iRTU_data
Dttimetemphum
p438
(dp439
g12
I22
sg13
I14
sg14
I37
sg15
I4
sg16
I31
sg17
I20
sg18
I5
sg19
I34
sba(iRTU_data
Dttimetemphum
p440
(dp441
g12
I24
sg13
I23
sg14
I29
sg15
I4
sg16
I0
sg17
I20
sg18
I4
sg19
I23
sba(iRTU_data
Dttimetemphum
p442
(dp443
g12
I24
sg13
I18
sg14
I26
sg15
I0
sg16
I19
sg17
I0
sg18
I1
sg19
I35
sba(iRTU_data
Dttimetemphum
p444
(dp445
g12
I24
sg13
I21
sg14
I29
sg15
I4
sg16
I1
sg17
I20
sg18
I4
sg19
I53
sba(iRTU_data
Dttimetemphum
p446
(dp447
g12
I26
sg13
I19
sg14
I25
sg15
I0
sg16
I12
sg17
I0
sg18
I1
sg19
I16
sba(iRTU_data
Dttimetemphum
p448
(dp449
g12
I24
sg13
I18
sg14
I29
sg15
I0
sg16
I49
sg17
I0
sg18
I1
sg19
I33
sba(iRTU_data
Dttimetemphum
p450
(dp451
g12
I24
sg13
I18
sg14
I36
sg15
I4
sg16
I28
sg17
I20
sg18
I5
sg19
I44
sba(iRTU_data
Dttimetemphum
p452
(dp453
g12
I24
sg13
I18
sg14
I26
sg15
I0
sg16
I3
sg17
I0
sg18
I1
sg19
I29
sba(iRTU_data
Dttimetemphum
p454
(dp455
g12
I23
sg13
I20
sg14
I37
sg15
I4
sg16
I26
sg17
I20
sg18
I5
sg19
I34
sba(iRTU_data
Dttimetemphum
p456
(dp457
g12
I24
sg13
I21
sg14
I36
sg15
I4
sg16
I26
sg17
I20
sg18
I5
sg19
I4
sba(iRTU_data
Dttimetemphum
p458
(dp459
g12
I24
sg13
I18
sg14
I26
sg15
I0
sg16
I34
sg17
I0
sg18
I1
sg19
I34
sba(iRTU_data
Dttimetemphum
p460
(dp461
g12
I24
sg13
I18
sg14
I26
sg15
I0
sg16
I48
sg17
I0
sg18
I1
sg19
I29
sba(iRTU_data
Dttimetemphum
p462
(dp463
g12
I24
sg13
I18
sg14
I26
sg15
I0
sg16
I54
sg17
I0
sg18
I1
sg19
I32
sba(iRTU_data
Dttimetemphum
p464
(dp465
g12
I24
sg13
I18
sg14
I26
sg15
I0
sg16
I59
sg17
I0
sg18
I1
sg19
I32
sba(iRTU_data
Dttimetemphum
p466
(dp467
g12
I23
sg13
I17
sg14
I35
sg15
I4
sg16
I29
sg17
I20
sg18
I5
sg19
I4
sba(iRTU_data
Dttimetemphum
p468
(dp469
g12
I24
sg13
I18
sg14
I26
sg15
I0
sg16
I24
sg17
I0
sg18
I1
sg19
I35
sba(iRTU_data
Dttimetemphum
p470
(dp471
g12
I24
sg13
I18
sg14
I26
sg15
I0
sg16
I54
sg17
I0
sg18
I1
sg19
I34
sba(iRTU_data
Dttimetemphum
p472
(dp473
g12
I23
sg13
I17
sg14
I35
sg15
I4
sg16
I29
sg17
I20
sg18
I5
sg19
I14
sba(iRTU_data
Dttimetemphum
p474
(dp475
g12
I24
sg13
I15
sg14
I33
sg15
I4
sg16
I30
sg17
I20
sg18
I5
sg19
I54
sba(iRTU_data
Dttimetemphum
p476
(dp477
g12
I24
sg13
I18
sg14
I28
sg15
I0
sg16
I54
sg17
I0
sg18
I1
sg19
I33
sba(iRTU_data
Dttimetemphum
p478
(dp479
g12
I23
sg13
I15
sg14
I35
sg15
I4
sg16
I30
sg17
I20
sg18
I5
sg19
I24
sba(iRTU_data
Dttimetemphum
p480
(dp481
g12
I24
sg13
I18
sg14
I26
sg15
I0
sg16
I38
sg17
I0
sg18
I1
sg19
I28
sba(iRTU_data
Dttimetemphum
p482
(dp483
g12
I24
sg13
I18
sg14
I26
sg15
I0
sg16
I44
sg17
I0
sg18
I1
sg19
I32
sba(iRTU_data
Dttimetemphum
p484
(dp485
g12
I24
sg13
I18
sg14
I26
sg15
I0
sg16
I49
sg17
I0
sg18
I1
sg19
I32
sba(iRTU_data
Dttimetemphum
p486
(dp487
g12
I24
sg13
I18
sg14
I26
sg15
I0
sg16
I13
sg17
I0
sg18
I1
sg19
I31
sba(iRTU_data
Dttimetemphum
p488
(dp489
g12
I24
sg13
I18
sg14
I26
sg15
I0
sg16
I59
sg17
I0
sg18
I1
sg19
I31
sba(iRTU_data
Dttimetemphum
p490
(dp491
g12
I24
sg13
I18
sg14
I26
sg15
I0
sg16
I39
sg17
I0
sg18
I1
sg19
I32
sba(iRTU_data
Dttimetemphum
p492
(dp493
g12
I23
sg13
I16
sg14
I34
sg15
I4
sg16
I29
sg17
I20
sg18
I5
sg19
I44
sba(iRTU_data
Dttimetemphum
p494
(dp495
g12
I24
sg13
I18
sg14
I26
sg15
I0
sg16
I54
sg17
I0
sg18
I1
sg19
I31
sba(iRTU_data
Dttimetemphum
p496
(dp497
g12
I24
sg13
I18
sg14
I26
sg15
I0
sg16
I53
sg17
I0
sg18
I1
sg19
I28
sba(iRTU_data
Dttimetemphum
p498
(dp499
g12
I24
sg13
I23
sg14
I29
sg15
I4
sg16
I0
sg17
I20
sg18
I4
sg19
I13
sba(iRTU_data
Dttimetemphum
p500
(dp501
g12
I25
sg13
I19
sg14
I27
sg15
I0
sg16
I6
sg17
I0
sg18
I1
sg19
I28
sba(iRTU_data
Dttimetemphum
p502
(dp503
g12
I24
sg13
I18
sg14
I26
sg15
I0
sg16
I53
sg17
I0
sg18
I1
sg19
I29
sba(iRTU_data
Dttimetemphum
p504
(dp505
g12
I24
sg13
I18
sg14
I26
sg15
I0
sg16
I29
sg17
I0
sg18
I1
sg19
I35
sba(iRTU_data
Dttimetemphum
p506
(dp507
g12
I24
sg13
I19
sg14
I37
sg15
I4
sg16
I27
sg17
I20
sg18
I5
sg19
I34
sba(iRTU_data
Dttimetemphum
p508
(dp509
g12
I24
sg13
I18
sg14
I26
sg15
I0
sg16
I39
sg17
I0
sg18
I1
sg19
I35
sba(iRTU_data
Dttimetemphum
p510
(dp511
g12
I24
sg13
I20
sg14
I28
sg15
I4
sg16
I51
sg17
I20
sg18
I4
sg19
I49
sba(iRTU_data
Dttimetemphum
p512
(dp513
g12
I24
sg13
I18
sg14
I26
sg15
I0
sg16
I28
sg17
I0
sg18
I1
sg19
I30
sba(iRTU_data
Dttimetemphum
p514
(dp515
g12
I24
sg13
I22
sg14
I29
sg15
I4
sg16
I0
sg17
I20
sg18
I4
sg19
I23
sba(iRTU_data
Dttimetemphum
p516
(dp517
g12
I24
sg13
I21
sg14
I35
sg15
I4
sg16
I25
sg17
I20
sg18
I5
sg19
I24
sba(iRTU_data
Dttimetemphum
p518
(dp519
g12
I24
sg13
I19
sg14
I37
sg15
I4
sg16
I27
sg17
I20
sg18
I5
sg19
I24
sba(iRTU_data
Dttimetemphum
p520
(dp521
g12
I24
sg13
I18
sg14
I29
sg15
I0
sg16
I44
sg17
I0
sg18
I1
sg19
I33
sba(iRTU_data
Dttimetemphum
p522
(dp523
g12
I24
sg13
I21
sg14
I28
sg15
I4
sg16
I1
sg17
I20
sg18
I4
sg19
I23
sba(iRTU_data
Dttimetemphum
p524
(dp525
g12
I24
sg13
I22
sg14
I29
sg15
I4
sg16
I1
sg17
I20
sg18
I4
sg19
I3
sba(iRTU_data
Dttimetemphum
p526
(dp527
g12
I24
sg13
I18
sg14
I26
sg15
I0
sg16
I48
sg17
I0
sg18
I1
sg19
I28
sba(iRTU_data
Dttimetemphum
p528
(dp529
g12
I24
sg13
I18
sg14
I37
sg15
I4
sg16
I27
sg17
I20
sg18
I5
sg19
I54
sba(iRTU_data
Dttimetemphum
p530
(dp531
g12
I24
sg13
I18
sg14
I26
sg15
I0
sg16
I23
sg17
I0
sg18
I1
sg19
I30
sba(iRTU_data
Dttimetemphum
p532
(dp533
g12
I24
sg13
I18
sg14
I26
sg15
I0
sg16
I14
sg17
I0
sg18
I1
sg19
I32
sba(iRTU_data
Dttimetemphum
p534
(dp535
g12
I24
sg13
I18
sg14
I26
sg15
I0
sg16
I49
sg17
I0
sg18
I1
sg19
I31
sba(iRTU_data
Dttimetemphum
p536
(dp537
g12
I24
sg13
I18
sg14
I26
sg15
I0
sg16
I19
sg17
I0
sg18
I1
sg19
I32
sba(iRTU_data
Dttimetemphum
p538
(dp539
g12
I24
sg13
I18
sg14
I27
sg15
I0
sg16
I4
sg17
I0
sg18
I1
sg19
I34
sba(iRTU_data
Dttimetemphum
p540
(dp541
g12
I23
sg13
I16
sg14
I33
sg15
I4
sg16
I29
sg17
I20
sg18
I5
sg19
I34
sba(iRTU_data
Dttimetemphum
p542
(dp543
g12
I24
sg13
I18
sg14
I28
sg15
I0
sg16
I59
sg17
I0
sg18
I1
sg19
I33
sba(iRTU_data
Dttimetemphum
p544
(dp545
g12
I24
sg13
I18
sg14
I26
sg15
I0
sg16
I8
sg17
I0
sg18
I1
sg19
I30
sba(iRTU_data
Dttimetemphum
p546
(dp547
g12
I24
sg13
I19
sg14
I37
sg15
I4
sg16
I27
sg17
I20
sg18
I5
sg19
I54
sba(iRTU_data
Dttimetemphum
p548
(dp549
g12
I24
sg13
I18
sg14
I26
sg15
I0
sg16
I4
sg17
I0
sg18
I1
sg19
I32
sba(iRTU_data
Dttimetemphum
p550
(dp551
g12
I24
sg13
I18
sg14
I26
sg15
I0
sg16
I33
sg17
I0
sg18
I1
sg19
I29
sba(iRTU_data
Dttimetemphum
p552
(dp553
g12
I24
sg13
I22
sg14
I29
sg15
I4
sg16
I0
sg17
I20
sg18
I4
sg19
I53
sba(iRTU_data
Dttimetemphum
p554
(dp555
g12
I24
sg13
I18
sg14
I26
sg15
I0
sg16
I58
sg17
I0
sg18
I1
sg19
I28
sba(iRTU_data
Dttimetemphum
p556
(dp557
g12
I24
sg13
I19
sg14
I27
sg15
I0
sg16
I6
sg17
I0
sg18
I1
sg19
I48
sba(iRTU_data
Dttimetemphum
p558
(dp559
g12
I24
sg13
I18
sg14
I26
sg15
I0
sg16
I49
sg17
I0
sg18
I1
sg19
I35
sba(iRTU_data
Dttimetemphum
p560
(dp561
g12
I24
sg13
I18
sg14
I26
sg15
I0
sg16
I29
sg17
I0
sg18
I1
sg19
I34
sba(iRTU_data
Dttimetemphum
p562
(dp563
g12
I24
sg13
I20
sg14
I48
sg15
I4
sg16
I26
sg17
I20
sg18
I5
sg19
I4
sba(iRTU_data
Dttimetemphum
p564
(dp565
g12
I23
sg13
I15
sg14
I35
sg15
I4
sg16
I31
sg17
I20
sg18
I5
sg19
I4
sba(iRTU_data
Dttimetemphum
p566
(dp567
g12
I24
sg13
I21
sg14
I28
sg15
I4
sg16
I1
sg17
I20
sg18
I4
sg19
I3
sba(iRTU_data
Dttimetemphum
p568
(dp569
g12
I24
sg13
I18
sg14
I26
sg15
I0
sg16
I39
sg17
I0
sg18
I1
sg19
I31
sba(iRTU_data
Dttimetemphum
p570
(dp571
g12
I24
sg13
I18
sg14
I26
sg15
I0
sg16
I39
sg17
I0
sg18
I1
sg19
I33
sba(iRTU_data
Dttimetemphum
p572
(dp573
g12
I23
sg13
I17
sg14
I34
sg15
I4
sg16
I29
sg17
I20
sg18
I5
sg19
I24
sba(iRTU_data
Dttimetemphum
p574
(dp575
g12
I24
sg13
I18
sg14
I26
sg15
I0
sg16
I44
sg17
I0
sg18
I1
sg19
I34
sba(iRTU_data
Dttimetemphum
p576
(dp577
g12
I24
sg13
I18
sg14
I26
sg15
I0
sg16
I14
sg17
I0
sg18
I1
sg19
I35
sba(iRTU_data
Dttimetemphum
p578
(dp579
g12
I24
sg13
I18
sg14
I26
sg15
I0
sg16
I57
sg17
I0
sg18
I1
sg19
I45
sba(iRTU_data
Dttimetemphum
p580
(dp581
g12
I24
sg13
I18
sg14
I26
sg15
I0
sg16
I49
sg17
I0
sg18
I1
sg19
I34
sba(iRTU_data
Dttimetemphum
p582
(dp583
g12
I24
sg13
I20
sg14
I27
sg15
I0
sg16
I5
sg17
I0
sg18
I1
sg19
I8
sba(iRTU_data
Dttimetemphum
p584
(dp585
g12
I24
sg13
I21
sg14
I28
sg15
I4
sg16
I1
sg17
I20
sg18
I4
sg19
I43
sba(iRTU_data
Dttimetemphum
p586
(dp587
g12
I24
sg13
I18
sg14
I26
sg15
I0
sg16
I4
sg17
I0
sg18
I1
sg19
I35
sba(iRTU_data
Dttimetemphum
p588
(dp589
g12
I24
sg13
I18
sg14
I26
sg15
I0
sg16
I3
sg17
I0
sg18
I1
sg19
I31
sba(iRTU_data
Dttimetemphum
p590
(dp591
g12
I24
sg13
I18
sg14
I26
sg15
I0
sg16
I18
sg17
I0
sg18
I1
sg19
I31
sba(iRTU_data
Dttimetemphum
p592
(dp593
g12
I24
sg13
I18
sg14
I26
sg15
I0
sg16
I34
sg17
I0
sg18
I1
sg19
I35
sba(iRTU_data
Dttimetemphum
p594
(dp595
g12
I24
sg13
I19
sg14
I37
sg15
I4
sg16
I27
sg17
I20
sg18
I5
sg19
I4
sba(iRTU_data
Dttimetemphum
p596
(dp597
g12
I24
sg13
I23
sg14
I29
sg15
I4
sg16
I59
sg17
I20
sg18
I4
sg19
I32
sba(iRTU_data
Dttimetemphum
p598
(dp599
g12
I24
sg13
I18
sg14
I34
sg15
I4
sg16
I28
sg17
I20
sg18
I5
sg19
I14
sba(iRTU_data
Dttimetemphum
p600
(dp601
g12
I24
sg13
I18
sg14
I26
sg15
I0
sg16
I23
sg17
I0
sg18
I1
sg19
I29
sba(iRTU_data
Dttimetemphum
p602
(dp603
g12
I25
sg13
I18
sg14
I47
sg15
I0
sg16
I57
sg17
I0
sg18
I1
sg19
I55
sba(iRTU_data
Dttimetemphum
p604
(dp605
g12
I23
sg13
I14
sg14
I35
sg15
I4
sg16
I31
sg17
I20
sg18
I5
sg19
I54
sba(iRTU_data
Dttimetemphum
p606
(dp607
g12
I24
sg13
I18
sg14
I26
sg15
I0
sg16
I48
sg17
I0
sg18
I1
sg19
I30
sba(iRTU_data
Dttimetemphum
p608
(dp609
g12
I24
sg13
I18
sg14
I26
sg15
I0
sg16
I33
sg17
I0
sg18
I1
sg19
I30
sba(iRTU_data
Dttimetemphum
p610
(dp611
g12
I24
sg13
I17
sg14
I34
sg15
I4
sg16
I29
sg17
I20
sg18
I5
sg19
I34
sba(iRTU_data
Dttimetemphum
p612
(dp613
g12
I24
sg13
I16
sg14
I33
sg15
I4
sg16
I30
sg17
I20
sg18
I5
sg19
I14
sba(iRTU_data
Dttimetemphum
p614
(dp615
g12
I24
sg13
I18
sg14
I26
sg15
I0
sg16
I13
sg17
I0
sg18
I1
sg19
I29
sba(iRTU_data
Dttimetemphum
p616
(dp617
g12
I24
sg13
I18
sg14
I26
sg15
I0
sg16
I28
sg17
I0
sg18
I1
sg19
I29
sba(iRTU_data
Dttimetemphum
p618
(dp619
g12
I24
sg13
I18
sg14
I36
sg15
I4
sg16
I28
sg17
I20
sg18
I5
sg19
I34
sba(iRTU_data
Dttimetemphum
p620
(dp621
g12
I24
sg13
I18
sg14
I34
sg15
I4
sg16
I28
sg17
I20
sg18
I5
sg19
I24
sba(iRTU_data
Dttimetemphum
p622
(dp623
g12
I24
sg13
I18
sg14
I26
sg15
I0
sg16
I23
sg17
I0
sg18
I1
sg19
I31
sba(iRTU_data
Dttimetemphum
p624
(dp625
g12
I24
sg13
I18
sg14
I26
sg15
I0
sg16
I34
sg17
I0
sg18
I1
sg19
I33
sba(iRTU_data
Dttimetemphum
p626
(dp627
g12
I24
sg13
I18
sg14
I26
sg15
I0
sg16
I58
sg17
I0
sg18
I1
sg19
I30
sba(iRTU_data
Dttimetemphum
p628
(dp629
g12
I24
sg13
I18
sg14
I26
sg15
I0
sg16
I43
sg17
I0
sg18
I1
sg19
I30
sba(iRTU_data
Dttimetemphum
p630
(dp631
g12
I24
sg13
I16
sg14
I33
sg15
I4
sg16
I30
sg17
I20
sg18
I5
sg19
I4
sba(iRTU_data
Dttimetemphum
p632
(dp633
g12
I24
sg13
I19
sg14
I37
sg15
I4
sg16
I27
sg17
I20
sg18
I5
sg19
I14
sba(iRTU_data
Dttimetemphum
p634
(dp635
g12
I24
sg13
I18
sg14
I26
sg15
I0
sg16
I13
sg17
I0
sg18
I1
sg19
I30
sba(iRTU_data
Dttimetemphum
p636
(dp637
g12
I24
sg13
I18
sg14
I26
sg15
I0
sg16
I39
sg17
I0
sg18
I1
sg19
I34
sba(iRTU_data
Dttimetemphum
p638
(dp639
g12
I24
sg13
I22
sg14
I35
sg15
I4
sg16
I25
sg17
I20
sg18
I5
sg19
I4
sba(iRTU_data
Dttimetemphum
p640
(dp641
g12
I23
sg13
I20
sg14
I36
sg15
I4
sg16
I26
sg17
I20
sg18
I5
sg19
I44
sba(iRTU_data
Dttimetemphum
p642
(dp643
g12
I24
sg13
I18
sg14
I26
sg15
I0
sg16
I14
sg17
I0
sg18
I1
sg19
I33
sba(iRTU_data
Dttimetemphum
p644
(dp645
g12
I24
sg13
I18
sg14
I26
sg15
I0
sg16
I9
sg17
I0
sg18
I1
sg19
I35
sba(iRTU_data
Dttimetemphum
p646
(dp647
g12
I24
sg13
I18
sg14
I26
sg15
I0
sg16
I19
sg17
I0
sg18
I1
sg19
I34
sba(iRTU_data
Dttimetemphum
p648
(dp649
g12
I24
sg13
I18
sg14
I26
sg15
I0
sg16
I38
sg17
I0
sg18
I1
sg19
I29
sba(iRTU_data
Dttimetemphum
p650
(dp651
g12
I24
sg13
I21
sg14
I28
sg15
I4
sg16
I1
sg17
I20
sg18
I4
sg19
I33
sba(iRTU_data
Dttimetemphum
p652
(dp653
g12
I24
sg13
I0
sg14
I29
sg15
I4
sg16
I59
sg17
I20
sg18
I5
sg19
I2
sba(iRTU_data
Dttimetemphum
p654
(dp655
g12
I24
sg13
I18
sg14
I26
sg15
I0
sg16
I8
sg17
I0
sg18
I1
sg19
I31
sba(iRTU_data
Dttimetemphum
p656
(dp657
g12
I24
sg13
I22
sg14
I29
sg15
I4
sg16
I1
sg17
I20
sg18
I4
sg19
I13
sba(iRTU_data
Dttimetemphum
p658
(dp659
g12
I24
sg13
I18
sg14
I26
sg15
I0
sg16
I29
sg17
I0
sg18
I1
sg19
I32
sba(iRTU_data
Dttimetemphum
p660
(dp661
g12
I24
sg13
I20
sg14
I27
sg15
I0
sg16
I5
sg17
I0
sg18
I1
sg19
I18
sba(iRTU_data
Dttimetemphum
p662
(dp663
g12
I23
sg13
I20
sg14
I37
sg15
I4
sg16
I26
sg17
I20
sg18
I5
sg19
I24
sba(iRTU_data
Dttimetemphum
p664
(dp665
g12
I23
sg13
I16
sg14
I34
sg15
I4
sg16
I29
sg17
I20
sg18
I5
sg19
I54
sba(iRTU_data
Dttimetemphum
p666
(dp667
g12
I24
sg13
I18
sg14
I26
sg15
I0
sg16
I44
sg17
I0
sg18
I1
sg19
I31
sba(iRTU_data
Dttimetemphum
p668
(dp669
g12
I24
sg13
I21
sg14
I36
sg15
I4
sg16
I25
sg17
I20
sg18
I5
sg19
I54
sba(iRTU_data
Dttimetemphum
p670
(dp671
g12
I24
sg13
I18
sg14
I26
sg15
I0
sg16
I43
sg17
I0
sg18
I1
sg19
I28
sba(iRTU_data
Dttimetemphum
p672
(dp673
g12
I24
sg13
I18
sg14
I26
sg15
I0
sg16
I9
sg17
I0
sg18
I1
sg19
I34
sba(iRTU_data
Dttimetemphum
p674
(dp675
g12
I24
sg13
I21
sg14
I28
sg15
I4
sg16
I1
sg17
I20
sg18
I4
sg19
I13
sba(iRTU_data
Dttimetemphum
p676
(dp677
g12
I24
sg13
I18
sg14
I26
sg15
I0
sg16
I18
sg17
I0
sg18
I1
sg19
I30
sba(iRTU_data
Dttimetemphum
p678
(dp679
g12
I24
sg13
I18
sg14
I26
sg15
I0
sg16
I58
sg17
I0
sg18
I1
sg19
I29
sba(iRTU_data
Dttimetemphum
p680
(dp681
g12
I24
sg13
I23
sg14
I29
sg15
I4
sg16
I59
sg17
I20
sg18
I4
sg19
I52
sba(iRTU_data
Dttimetemphum
p682
(dp683
g12
I24
sg13
I18
sg14
I26
sg15
I0
sg16
I38
sg17
I0
sg18
I1
sg19
I30
sba(iRTU_data
Dttimetemphum
p684
(dp685
g12
I24
sg13
I19
sg14
I37
sg15
I4
sg16
I27
sg17
I20
sg18
I5
sg19
I44
sba(iRTU_data
Dttimetemphum
p686
(dp687
g12
I24
sg13
I20
sg14
I28
sg15
I0
sg16
I5
sg17
I0
sg18
I1
sg19
I28
sba(iRTU_data
Dttimetemphum
p688
(dp689
g12
I24
sg13
I17
sg14
I33
sg15
I4
sg16
I28
sg17
I20
sg18
I5
sg19
I54
sba(iRTU_data
Dttimetemphum
p690
(dp691
g12
I24
sg13
I18
sg14
I26
sg15
I0
sg16
I53
sg17
I0
sg18
I1
sg19
I30
sba(iRTU_data
Dttimetemphum
p692
(dp693
g12
I24
sg13
I18
sg14
I26
sg15
I0
sg16
I18
sg17
I0
sg18
I1
sg19
I29
sba(iRTU_data
Dttimetemphum
p694
(dp695
g12
I24
sg13
I18
sg14
I26
sg15
I0
sg16
I8
sg17
I0
sg18
I1
sg19
I29
sba(iRTU_data
Dttimetemphum
p696
(dp697
g12
I24
sg13
I22
sg14
I29
sg15
I4
sg16
I0
sg17
I20
sg18
I4
sg19
I43
sba(iRTU_data
Dttimetemphum
p698
(dp699
g12
I24
sg13
I18
sg14
I26
sg15
I0
sg16
I44
sg17
I0
sg18
I1
sg19
I35
sba(iRTU_data
Dttimetemphum
p700
(dp701
g12
I22
sg13
I14
sg14
I36
sg15
I4
sg16
I31
sg17
I20
sg18
I5
sg19
I44
sba(iRTU_data
Dttimetemphum
p702
(dp703
g12
I24
sg13
I19
sg14
I27
sg15
I0
sg16
I5
sg17
I0
sg18
I1
sg19
I58
sba(iRTU_data
Dttimetemphum
p704
(dp705
g12
I24
sg13
I22
sg14
I29
sg15
I4
sg16
I0
sg17
I20
sg18
I4
sg19
I33
sba(iRTU_data
Dttimetemphum
p706
(dp707
g12
I24
sg13
I18
sg14
I26
sg15
I0
sg16
I29
sg17
I0
sg18
I1
sg19
I33
sba(iRTU_data
Dttimetemphum
p708
(dp709
g12
I24
sg13
I16
sg14
I33
sg15
I4
sg16
I29
sg17
I20
sg18
I5
sg19
I24
sba(iRTU_data
Dttimetemphum
p710
(dp711
g12
I23
sg13
I20
sg14
I37
sg15
I4
sg16
I26
sg17
I20
sg18
I5
sg19
I54
sba(iRTU_data
Dttimetemphum
p712
(dp713
g12
I24
sg13
I18
sg14
I26
sg15
I0
sg16
I24
sg17
I0
sg18
I1
sg19
I32
sba(iRTU_data
Dttimetemphum
p714
(dp715
g12
I24
sg13
I18
sg14
I26
sg15
I0
sg16
I14
sg17
I0
sg18
I1
sg19
I34
sba(iRTU_data
Dttimetemphum
p716
(dp717
g12
I24
sg13
I23
sg14
I29
sg15
I4
sg16
I59
sg17
I20
sg18
I4
sg19
I42
sba(iRTU_data
Dttimetemphum
p718
(dp719
g12
I24
sg13
I18
sg14
I26
sg15
I0
sg16
I33
sg17
I0
sg18
I1
sg19
I28
sba(iRTU_data
Dttimetemphum
p720
(dp721
g12
I24
sg13
I18
sg14
I26
sg15
I0
sg16
I28
sg17
I0
sg18
I1
sg19
I31
sbatp722
Rp723
sba.